

Microchip MPLAB XC8 Assembler V2.41 build 20230208172133 
                                                                                               Sun Jul 09 23:12:06 2023

Microchip MPLAB XC8 C Compiler v2.41 (Free license) build 20230208172133 Og1 
     1                           	processor	18F45K20
     2                           	fnconf	rparam,??,?,0
     3                           	pagewidth 120
     4                           	opt	flic
     5                           	psect	nvBANK0,global,class=BANK0,space=1,delta=1,lowdata,noexec
     6                           	psect	smallconst,global,reloc=2,class=SMALLCONST,delta=1,noexec
     7                           	psect	cinit,global,reloc=2,class=CODE,delta=1
     8                           	psect	bssCOMRAM,global,class=COMRAM,space=1,delta=1,lowdata,noexec
     9                           	psect	bssBANK0,global,class=BANK0,space=1,delta=1,lowdata,noexec
    10                           	psect	bssBANK1,global,class=BANK1,space=1,delta=1,lowdata,noexec
    11                           	psect	cstackBANK0,global,class=BANK0,space=1,delta=1,lowdata,noexec
    12                           	psect	cstackCOMRAM,global,class=COMRAM,space=1,delta=1,lowdata,noexec
    13                           	psect	text0,global,reloc=2,class=CODE,delta=1
    14                           	psect	text1,global,reloc=2,class=CODE,delta=1,group=3
    15                           	psect	text2,global,reloc=2,class=CODE,delta=1,group=3
    16                           	psect	text3,global,reloc=2,class=CODE,delta=1,group=1
    17                           	psect	text4,global,reloc=2,class=CODE,delta=1,group=1
    18                           	psect	text5,global,reloc=2,class=CODE,delta=1,group=1
    19                           	psect	text6,global,reloc=2,class=CODE,delta=1,group=2
    20                           	psect	text7,global,reloc=2,class=CODE,delta=1,group=1
    21                           	psect	text8,global,reloc=2,class=CODE,delta=1,group=3
    22                           	psect	text9,global,reloc=2,class=CODE,delta=1,group=1
    23                           	psect	text10,global,reloc=2,class=CODE,delta=1,group=3
    24                           	psect	text11,global,reloc=2,class=CODE,delta=1,group=3
    25                           	psect	text12,global,reloc=2,class=CODE,delta=1,group=3
    26                           	psect	text13,global,reloc=2,class=CODE,delta=1,group=3
    27                           	psect	text14,global,reloc=2,class=CODE,delta=1,group=3
    28                           	psect	text15,global,reloc=2,class=CODE,delta=1,group=3
    29                           	psect	text16,global,reloc=2,class=CODE,delta=1,group=3
    30                           	psect	text17,global,reloc=2,class=CODE,delta=1,group=2
    31                           	psect	text18,global,reloc=2,class=CODE,delta=1,group=2
    32                           	psect	text19,global,reloc=2,class=CODE,delta=1,group=2
    33                           	psect	text20,global,reloc=2,class=CODE,delta=1,group=2
    34                           	psect	text21,global,reloc=2,class=CODE,delta=1,group=2
    35                           	psect	text22,global,reloc=2,class=CODE,delta=1,group=2
    36                           	psect	text23,global,reloc=2,class=CODE,delta=1,group=2
    37                           	psect	text24,global,reloc=2,class=CODE,delta=1,group=2
    38                           	psect	text25,global,reloc=2,class=CODE,delta=1
    39                           	psect	text26,global,reloc=2,class=CODE,delta=1
    40                           	psect	text27,global,reloc=2,class=CODE,delta=1
    41                           	psect	text28,global,reloc=2,class=CODE,delta=1
    42                           	psect	text29,global,reloc=2,class=CODE,delta=1
    43                           	psect	text30,global,reloc=2,class=CODE,delta=1
    44                           	psect	text31,global,reloc=2,class=CODE,delta=1
    45                           	psect	text32,global,reloc=2,class=CODE,delta=1
    46                           	psect	intsave_regs,global,class=BIGRAM,space=1,delta=1,noexec
    47                           	psect	rparam,global,class=COMRAM,space=1,delta=1,noexec
    48                           	psect	idloc,global,abs,ovrld,class=IDLOC,space=5,delta=1,noexec
    49                           	psect	config,global,abs,ovrld,class=CONFIG,space=4,delta=1,noexec
    50   000000                     
    51                           ; Generated 06/04/2022 GMT
    52                           ; 
    53                           ; Copyright © 2022, Microchip Technology Inc. and its subsidiaries ("Microchip")
    54                           ; All rights reserved.
    55                           ; 
    56                           ; This software is developed by Microchip Technology Inc. and its subsidiaries ("Microch
      +                          ip").
    57                           ; 
    58                           ; Redistribution and use in source and binary forms, with or without modification, are
    59                           ; permitted provided that the following conditions are met:
    60                           ; 
    61                           ;     1. Redistributions of source code must retain the above copyright notice, this lis
      +                          t of
    62                           ;        conditions and the following disclaimer.
    63                           ; 
    64                           ;     2. Redistributions in binary form must reproduce the above copyright notice, this 
      +                          list
    65                           ;        of conditions and the following disclaimer in the documentation and/or other
    66                           ;        materials provided with the distribution. Publication is not required when
    67                           ;        this file is used in an embedded application.
    68                           ; 
    69                           ;     3. Microchip's name may not be used to endorse or promote products derived from th
      +                          is
    70                           ;        software without specific prior written permission.
    71                           ; 
    72                           ; THIS SOFTWARE IS PROVIDED BY MICROCHIP "AS IS" AND ANY EXPRESS OR IMPLIED WARRANTIES,
    73                           ; INCLUDING, BUT NOT LIMITED TO, THE IMPLIED WARRANTIES OF MERCHANTABILITY AND FITNESS F
      +                          OR
    74                           ; PURPOSE ARE DISCLAIMED.  IN NO EVENT SHALL MICROCHIP BE LIABLE FOR ANY DIRECT, INDIREC
      +                          T,
    75                           ; INCIDENTAL, SPECIAL, EXEMPLARY, OR CONSEQUENTIAL DAMAGES (INCLUDING BUT NOT LIMITED TO
    76                           ; PROCUREMENT OF SUBSTITUTE GOODS OR SERVICES; LOSS OF USE, DATA OR PROFITS; OR BUSINESS
    77                           ; INTERRUPTION) HOWSOEVER CAUSED AND ON ANY THEORY OF LIABILITY, WHETHER IN CONTRACT, ST
      +                          RICT
    78                           ; LIABILITY, OR TORT (INCLUDING NEGLIGENCE OR OTHERWISE) ARISING IN ANY WAY OUT OF THE U
      +                          SE OF
    79                           ; THIS SOFTWARE, EVEN IF ADVISED OF THE POSSIBILITY OF SUCH DAMAGE.
    80                           ; 
    81                           ; 
    82                           ; Code-generator required, PIC18F45K20 Definitions
    83                           ; 
    84                           ; SFR Addresses
    85   000000                     
    86 ;; Function _EUSART_DefaultFramingErrorHandler is unused but had its address taken
    87   000000                     
    88 ;; Function _EUSART_DefaultOverrunErrorHandler is unused but had its address taken
    89   000000                     
    90 ;; Function _EUSART_DefaultErrorHandler is unused but had its address taken
    91   000000                     _TXREG	set	4013
    92   000000                     _RCREG	set	4014
    93   000000                     _SPBRG	set	4015
    94   000000                     _TXSTA	set	4012
    95   000000                     _TRISD	set	3989
    96   000000                     _TRISC	set	3988
    97   000000                     _TRISB	set	3987
    98   000000                     _LATC	set	3979
    99   000000                     _LATB	set	3978
   100                           
   101                           	psect	nvBANK0
   102   0000D2                     __pnvBANK0:
   103                           	callstack 0
   104   0000D2                     _EUSART_ErrorHandler:
   105                           	callstack 0
   106   0000D2                     	ds	2
   107   0000D4                     _EUSART_OverrunErrorHandler:
   108                           	callstack 0
   109   0000D4                     	ds	2
   110   0000D6                     _EUSART_FramingErrorHandler:
   111                           	callstack 0
   112   0000D6                     	ds	2
   113   000000                     _RCSTAbits	set	4011
   114   000000                     _TXSTAbits	set	4012
   115   000000                     _WPUB	set	3964
   116   000000                     _ANSEL	set	3966
   117   000000                     _LATA	set	3977
   118   000000                     _LATD	set	3980
   119   000000                     _LATE	set	3981
   120   000000                     _TRISA	set	3986
   121   000000                     _TRISE	set	3990
   122   000000                     _OSCTUNE	set	3995
   123   000000                     _OSCCON	set	4051
   124   000000                     _INTCON2bits	set	4081
   125   000000                     _ANSELH	set	3967
   126   000000                     _INTCONbits	set	4082
   127   000000                     _PIR1bits	set	3998
   128   000000                     _RCSTA	set	4011
   129   000000                     _BAUDCON	set	4024
   130   000000                     _SPBRGH	set	4016
   131                           
   132                           	psect	smallconst
   133   000600                     __psmallconst:
   134                           	callstack 0
   135   000600  00                 	db	0
   136   000601                     STR_1:
   137   000601  25                 	db	37
   138   000602  32                 	db	50	;'2'
   139   000603  66                 	db	102	;'f'
   140   000604  0A                 	db	10
   141   000605  00                 	db	0
   142   000606                     STR_2:
   143   000606  69                 	db	105	;'i'
   144   000607  6E                 	db	110	;'n'
   145   000608  66                 	db	102	;'f'
   146   000609  00                 	db	0
   147   00060A                     STR_5:
   148   00060A  6E                 	db	110	;'n'
   149   00060B  61                 	db	97	;'a'
   150   00060C  6E                 	db	110	;'n'
   151   00060D  00                 	db	0
   152   00060E  00                 	db	0	; dummy byte at the end
   153   000000                     
   154                           ; #config settings
   155                           
   156                           	psect	cinit
   157   002AE4                     __pcinit:
   158                           	callstack 0
   159   002AE4                     start_initialization:
   160                           	callstack 0
   161   002AE4                     __initialization:
   162                           	callstack 0
   163                           
   164                           ; Clear objects allocated to BANK1 (80 bytes)
   165   002AE4  EE01  F000         	lfsr	0,__pbssBANK1
   166   002AE8  0E50               	movlw	80
   167   002AEA                     clear_0:
   168   002AEA  6AEE               	clrf	postinc0,c
   169   002AEC  06E8               	decf	wreg,f,c
   170   002AEE  E1FD               	bnz	clear_0
   171                           
   172                           ; Clear objects allocated to BANK0 (4 bytes)
   173   002AF0  0100               	movlb	0
   174   002AF2  6BDB               	clrf	(__pbssBANK0+3)& (0+255),b
   175   002AF4  6BDA               	clrf	(__pbssBANK0+2)& (0+255),b
   176   002AF6  6BD9               	clrf	(__pbssBANK0+1)& (0+255),b
   177   002AF8  6BD8               	clrf	__pbssBANK0& (0+255),b
   178                           
   179                           ; Clear objects allocated to COMRAM (10 bytes)
   180   002AFA  EE00  F056         	lfsr	0,__pbssCOMRAM
   181   002AFE  0E0A               	movlw	10
   182   002B00                     clear_1:
   183   002B00  6AEE               	clrf	postinc0,c
   184   002B02  06E8               	decf	wreg,f,c
   185   002B04  E1FD               	bnz	clear_1
   186   002B06                     end_of_initialization:
   187                           	callstack 0
   188   002B06                     __end_of__initialization:
   189                           	callstack 0
   190   002B06  0E00               	movlw	low (__Lmediumconst shr (0+16))
   191   002B08  6EF8               	movwf	tblptru,c
   192   002B0A  0100               	movlb	0
   193   002B0C  EF75  F010         	goto	_main	;jump to C main() function
   194                           
   195                           	psect	bssCOMRAM
   196   000056                     __pbssCOMRAM:
   197                           	callstack 0
   198   000056                     ___fpclassifyf@F465:
   199                           	callstack 0
   200   000056                     	ds	4
   201   00005A                     _width:
   202                           	callstack 0
   203   00005A                     	ds	2
   204   00005C                     _prec:
   205                           	callstack 0
   206   00005C                     	ds	2
   207   00005E                     _flags:
   208                           	callstack 0
   209   00005E                     	ds	1
   210   00005F                     _eusartRxLastError:
   211                           	callstack 0
   212   00005F                     	ds	1
   213                           
   214                           	psect	bssBANK0
   215   0000D8                     __pbssBANK0:
   216                           	callstack 0
   217   0000D8                     floorf@F526:
   218                           	callstack 0
   219   0000D8                     	ds	4
   220                           
   221                           	psect	bssBANK1
   222   000100                     __pbssBANK1:
   223                           	callstack 0
   224   000100                     _dbuf:
   225                           	callstack 0
   226   000100                     	ds	80
   227                           
   228                           	psect	cstackBANK0
   229   000060                     __pcstackBANK0:
   230                           	callstack 0
   231   000060                     efgtoa@ne:
   232                           	callstack 0
   233                           
   234                           ; 2 bytes @ 0x0
   235   000060                     	ds	2
   236   000062                     efgtoa@p:
   237                           	callstack 0
   238                           
   239                           ; 2 bytes @ 0x2
   240   000062                     	ds	2
   241   000064                     efgtoa@t:
   242                           	callstack 0
   243                           
   244                           ; 2 bytes @ 0x4
   245   000064                     	ds	2
   246   000066                     _efgtoa$982:
   247                           	callstack 0
   248                           
   249                           ; 2 bytes @ 0x6
   250   000066                     	ds	2
   251   000068                     efgtoa@pp:
   252                           	callstack 0
   253                           
   254                           ; 1 bytes @ 0x8
   255   000068                     	ds	1
   256   000069                     efgtoa@mode:
   257                           	callstack 0
   258                           
   259                           ; 1 bytes @ 0x9
   260   000069                     	ds	1
   261   00006A                     efgtoa@nmode:
   262                           	callstack 0
   263                           
   264                           ; 1 bytes @ 0xA
   265   00006A                     	ds	1
   266   00006B                     efgtoa@d:
   267                           	callstack 0
   268                           
   269                           ; 2 bytes @ 0xB
   270   00006B                     	ds	2
   271   00006D                     efgtoa@m:
   272                           	callstack 0
   273                           
   274                           ; 2 bytes @ 0xD
   275   00006D                     	ds	2
   276   00006F                     efgtoa@e:
   277                           	callstack 0
   278                           
   279                           ; 2 bytes @ 0xF
   280   00006F                     	ds	2
   281   000071                     efgtoa@w:
   282                           	callstack 0
   283                           
   284                           ; 2 bytes @ 0x11
   285   000071                     	ds	2
   286   000073                     efgtoa@ou:
   287                           	callstack 0
   288                           
   289                           ; 4 bytes @ 0x13
   290   000073                     	ds	4
   291   000077                     efgtoa@i:
   292                           	callstack 0
   293                           
   294                           ; 2 bytes @ 0x17
   295   000077                     	ds	2
   296   000079                     efgtoa@h:
   297                           	callstack 0
   298                           
   299                           ; 4 bytes @ 0x19
   300   000079                     	ds	4
   301   00007D                     efgtoa@l:
   302                           	callstack 0
   303                           
   304                           ; 4 bytes @ 0x1D
   305   00007D                     	ds	4
   306   000081                     efgtoa@sign:
   307                           	callstack 0
   308                           
   309                           ; 1 bytes @ 0x21
   310   000081                     	ds	1
   311   000082                     efgtoa@n:
   312                           	callstack 0
   313                           
   314                           ; 2 bytes @ 0x22
   315   000082                     	ds	2
   316   000084                     efgtoa@g:
   317                           	callstack 0
   318                           
   319                           ; 4 bytes @ 0x24
   320   000084                     	ds	4
   321   000088                     efgtoa@u:
   322                           	callstack 0
   323                           
   324                           ; 4 bytes @ 0x28
   325   000088                     	ds	4
   326   00008C                     ?_vfprintf:
   327                           	callstack 0
   328   00008C                     vfprintf@fp:
   329                           	callstack 0
   330                           
   331                           ; 2 bytes @ 0x2C
   332   00008C                     	ds	2
   333   00008E                     vfprintf@fmt:
   334                           	callstack 0
   335                           
   336                           ; 2 bytes @ 0x2E
   337   00008E                     	ds	2
   338   000090                     vfprintf@ap:
   339                           	callstack 0
   340                           
   341                           ; 2 bytes @ 0x30
   342   000090                     	ds	2
   343   000092                     ?_sprintf:
   344                           	callstack 0
   345   000092                     sprintf@s:
   346                           	callstack 0
   347                           
   348                           ; 2 bytes @ 0x32
   349   000092                     	ds	2
   350   000094                     sprintf@fmt:
   351                           	callstack 0
   352                           
   353                           ; 2 bytes @ 0x34
   354   000094                     	ds	6
   355   00009A                     main@data:
   356                           	callstack 0
   357                           
   358                           ; 50 bytes @ 0x3A
   359   00009A                     	ds	50
   360   0000CC                     main@i:
   361                           	callstack 0
   362                           
   363                           ; 2 bytes @ 0x6C
   364   0000CC                     	ds	2
   365   0000CE                     main@value:
   366                           	callstack 0
   367                           
   368                           ; 4 bytes @ 0x6E
   369   0000CE                     	ds	4
   370                           
   371                           	psect	cstackCOMRAM
   372   000001                     __pcstackCOMRAM:
   373                           	callstack 0
   374   000001                     ?_strlen:
   375                           	callstack 0
   376   000001                     ?___fpclassifyf:
   377                           	callstack 0
   378   000001                     ?___wmul:
   379                           	callstack 0
   380   000001                     ?___fladd:
   381                           	callstack 0
   382   000001                     ?___fldiv:
   383                           	callstack 0
   384   000001                     ?___flmul:
   385                           	callstack 0
   386   000001                     ?_labs:
   387                           	callstack 0
   388   000001                     ?___flneg:
   389                           	callstack 0
   390   000001                     ?___fltol:
   391                           	callstack 0
   392   000001                     EUSART_Write@txData:
   393                           	callstack 0
   394   000001                     EUSART_SetFramingErrorHandler@interruptHandler:
   395                           	callstack 0
   396   000001                     EUSART_SetOverrunErrorHandler@interruptHandler:
   397                           	callstack 0
   398   000001                     EUSART_SetErrorHandler@interruptHandler:
   399                           	callstack 0
   400   000001                     ___wmul@multiplier:
   401                           	callstack 0
   402   000001                     memcpy@d1:
   403                           	callstack 0
   404   000001                     fputc@c:
   405                           	callstack 0
   406   000001                     strcpy@dest:
   407                           	callstack 0
   408   000001                     strlen@s:
   409                           	callstack 0
   410   000001                     ___fleq@ff1:
   411                           	callstack 0
   412   000001                     ___flneg@f1:
   413                           	callstack 0
   414   000001                     ___fltol@f1:
   415                           	callstack 0
   416   000001                     ___fladd@b:
   417                           	callstack 0
   418   000001                     ___fldiv@b:
   419                           	callstack 0
   420   000001                     ___flmul@b:
   421                           	callstack 0
   422   000001                     ___fpclassifyf@x:
   423                           	callstack 0
   424   000001                     labs@a:
   425                           	callstack 0
   426                           
   427                           ; 4 bytes @ 0x0
   428   000001                     	ds	2
   429   000003                     ___wmul@multiplicand:
   430                           	callstack 0
   431   000003                     memcpy@s1:
   432                           	callstack 0
   433   000003                     fputc@fp:
   434                           	callstack 0
   435   000003                     strcpy@src:
   436                           	callstack 0
   437   000003                     strlen@a:
   438                           	callstack 0
   439                           
   440                           ; 2 bytes @ 0x2
   441   000003                     	ds	2
   442   000005                     ??_fputc:
   443   000005                     ??___fpclassifyf:
   444   000005                     ??_labs:
   445   000005                     ??___fltol:
   446   000005                     ___wmul@product:
   447                           	callstack 0
   448   000005                     memcpy@n:
   449                           	callstack 0
   450   000005                     strcpy@s:
   451                           	callstack 0
   452   000005                     ___fleq@ff2:
   453                           	callstack 0
   454   000005                     ___fladd@a:
   455                           	callstack 0
   456   000005                     ___fldiv@a:
   457                           	callstack 0
   458   000005                     ___flmul@a:
   459                           	callstack 0
   460                           
   461                           ; 4 bytes @ 0x4
   462   000005                     	ds	2
   463   000007                     ?_read_prec_or_width:
   464                           	callstack 0
   465   000007                     read_prec_or_width@fmt:
   466                           	callstack 0
   467   000007                     memcpy@d:
   468                           	callstack 0
   469   000007                     strcpy@d:
   470                           	callstack 0
   471                           
   472                           ; 2 bytes @ 0x6
   473   000007                     	ds	2
   474   000009                     ??___fladd:
   475   000009                     ??___fldiv:
   476   000009                     ??___flmul:
   477   000009                     ??___fleq:
   478   000009                     ___fltol@sign1:
   479                           	callstack 0
   480   000009                     read_prec_or_width@ap:
   481                           	callstack 0
   482   000009                     ___fpclassifyf@e:
   483                           	callstack 0
   484   000009                     memcpy@s:
   485                           	callstack 0
   486                           
   487                           ; 2 bytes @ 0x8
   488   000009                     	ds	1
   489   00000A                     ___fltol@exp1:
   490                           	callstack 0
   491   00000A                     fputs@s:
   492                           	callstack 0
   493                           
   494                           ; 2 bytes @ 0x9
   495   00000A                     	ds	1
   496   00000B                     ??_read_prec_or_width:
   497   00000B                     memcpy@tmp:
   498                           	callstack 0
   499   00000B                     ___fpclassifyf@u:
   500                           	callstack 0
   501                           
   502                           ; 4 bytes @ 0xA
   503   00000B                     	ds	1
   504   00000C                     fputs@fp:
   505                           	callstack 0
   506                           
   507                           ; 2 bytes @ 0xB
   508   00000C                     	ds	1
   509   00000D                     ___fladd@signs:
   510                           	callstack 0
   511   00000D                     ___flmul@sign:
   512                           	callstack 0
   513   00000D                     read_prec_or_width@c:
   514                           	callstack 0
   515   00000D                     ___fldiv@rem:
   516                           	callstack 0
   517                           
   518                           ; 4 bytes @ 0xC
   519   00000D                     	ds	1
   520   00000E                     ___fladd@aexp:
   521                           	callstack 0
   522   00000E                     fputs@c:
   523                           	callstack 0
   524   00000E                     read_prec_or_width@n:
   525                           	callstack 0
   526   00000E                     ___flmul@grs:
   527                           	callstack 0
   528                           
   529                           ; 4 bytes @ 0xD
   530   00000E                     	ds	1
   531   00000F                     ___fladd@bexp:
   532                           	callstack 0
   533   00000F                     fputs@i:
   534                           	callstack 0
   535                           
   536                           ; 2 bytes @ 0xE
   537   00000F                     	ds	1
   538   000010                     ___fladd@grs:
   539                           	callstack 0
   540                           
   541                           ; 1 bytes @ 0xF
   542   000010                     	ds	1
   543   000011                     ___fldiv@sign:
   544                           	callstack 0
   545   000011                     pad@fp:
   546                           	callstack 0
   547                           
   548                           ; 2 bytes @ 0x10
   549   000011                     	ds	1
   550   000012                     ___flmul@aexp:
   551                           	callstack 0
   552   000012                     ___fldiv@new_exp:
   553                           	callstack 0
   554                           
   555                           ; 2 bytes @ 0x11
   556   000012                     	ds	1
   557   000013                     ___flmul@bexp:
   558                           	callstack 0
   559   000013                     pad@buf:
   560                           	callstack 0
   561                           
   562                           ; 2 bytes @ 0x12
   563   000013                     	ds	1
   564   000014                     ___fldiv@grs:
   565                           	callstack 0
   566   000014                     ___flmul@prod:
   567                           	callstack 0
   568                           
   569                           ; 4 bytes @ 0x13
   570   000014                     	ds	1
   571   000015                     pad@p:
   572                           	callstack 0
   573                           
   574                           ; 2 bytes @ 0x14
   575   000015                     	ds	2
   576   000017                     ??_pad:
   577                           
   578                           ; 1 bytes @ 0x16
   579   000017                     	ds	1
   580   000018                     ___fldiv@bexp:
   581                           	callstack 0
   582   000018                     ___flmul@temp:
   583                           	callstack 0
   584   000018                     pad@i:
   585                           	callstack 0
   586                           
   587                           ; 2 bytes @ 0x17
   588   000018                     	ds	1
   589   000019                     ___fldiv@aexp:
   590                           	callstack 0
   591                           
   592                           ; 1 bytes @ 0x18
   593   000019                     	ds	1
   594   00001A                     ?___flsub:
   595                           	callstack 0
   596   00001A                     ?_floorf:
   597                           	callstack 0
   598   00001A                     pad@w:
   599                           	callstack 0
   600   00001A                     ___flge@ff1:
   601                           	callstack 0
   602   00001A                     ___flsub@b:
   603                           	callstack 0
   604   00001A                     floorf@x:
   605                           	callstack 0
   606                           
   607                           ; 4 bytes @ 0x19
   608   00001A                     	ds	4
   609   00001E                     ??_floorf:
   610   00001E                     ___flge@ff2:
   611                           	callstack 0
   612   00001E                     ___flsub@a:
   613                           	callstack 0
   614                           
   615                           ; 4 bytes @ 0x1D
   616   00001E                     	ds	4
   617   000022                     ??___flge:
   618                           
   619                           ; 1 bytes @ 0x21
   620   000022                     	ds	2
   621   000024                     floorf@m:
   622                           	callstack 0
   623                           
   624                           ; 4 bytes @ 0x23
   625   000024                     	ds	4
   626   000028                     floorf@e:
   627                           	callstack 0
   628                           
   629                           ; 2 bytes @ 0x27
   630   000028                     	ds	2
   631   00002A                     floorf@u:
   632                           	callstack 0
   633                           
   634                           ; 4 bytes @ 0x29
   635   00002A                     	ds	4
   636   00002E                     efgtoa@fp:
   637                           	callstack 0
   638                           
   639                           ; 2 bytes @ 0x2D
   640   00002E                     	ds	2
   641   000030                     efgtoa@f:
   642                           	callstack 0
   643                           
   644                           ; 4 bytes @ 0x2F
   645   000030                     	ds	4
   646   000034                     efgtoa@c:
   647                           	callstack 0
   648                           
   649                           ; 1 bytes @ 0x33
   650   000034                     	ds	1
   651   000035                     ??_efgtoa:
   652                           
   653                           ; 1 bytes @ 0x34
   654   000035                     	ds	2
   655   000037                     vfpfcnvrt@fp:
   656                           	callstack 0
   657                           
   658                           ; 2 bytes @ 0x36
   659   000037                     	ds	2
   660   000039                     vfpfcnvrt@fmt:
   661                           	callstack 0
   662                           
   663                           ; 2 bytes @ 0x38
   664   000039                     	ds	2
   665   00003B                     vfpfcnvrt@ap:
   666                           	callstack 0
   667                           
   668                           ; 2 bytes @ 0x3A
   669   00003B                     	ds	2
   670   00003D                     ??_vfpfcnvrt:
   671                           
   672                           ; 1 bytes @ 0x3C
   673   00003D                     	ds	2
   674   00003F                     vfpfcnvrt@convarg:
   675                           	callstack 0
   676                           
   677                           ; 4 bytes @ 0x3E
   678   00003F                     	ds	4
   679   000043                     vfpfcnvrt@c:
   680                           	callstack 0
   681                           
   682                           ; 1 bytes @ 0x42
   683   000043                     	ds	1
   684   000044                     vfpfcnvrt@cp:
   685                           	callstack 0
   686                           
   687                           ; 2 bytes @ 0x43
   688   000044                     	ds	2
   689   000046                     vfprintf@cfmt:
   690                           	callstack 0
   691                           
   692                           ; 2 bytes @ 0x45
   693   000046                     	ds	2
   694   000048                     sprintf@ap:
   695                           	callstack 0
   696                           
   697                           ; 2 bytes @ 0x47
   698   000048                     	ds	2
   699   00004A                     sprintf@f:
   700                           	callstack 0
   701                           
   702                           ; 12 bytes @ 0x49
   703   00004A                     	ds	12
   704   000056                     
   705                           ; 1 bytes @ 0x55
   706 ;;
   707 ;;Main: autosize = 0, tempsize = 0, incstack = 0, save=0
   708 ;;
   709 ;; *************** function _main *****************
   710 ;; Defined at:
   711 ;;		line 50 in file "main.c"
   712 ;; Parameters:    Size  Location     Type
   713 ;;		None
   714 ;; Auto vars:     Size  Location     Type
   715 ;;  i               2  108[BANK0 ] int 
   716 ;;  data           50   58[BANK0 ] unsigned char [50]
   717 ;;  value           4  110[BANK0 ] float 
   718 ;;  count           2    0        unsigned int 
   719 ;; Return value:  Size  Location     Type
   720 ;;                  1    wreg      void 
   721 ;; Registers used:
   722 ;;		wreg, fsr1l, fsr1h, fsr2l, fsr2h, status,2, status,0, tblptrl, tblptrh, tblptru, prodl, prodh, cstack
   723 ;; Tracked objects:
   724 ;;		On entry : 0/0
   725 ;;		On exit  : 0/0
   726 ;;		Unchanged: 0/0
   727 ;; Data sizes:     COMRAM   BANK0   BANK1   BANK2   BANK3   BANK4   BANK5
   728 ;;      Params:         0       0       0       0       0       0       0
   729 ;;      Locals:         0      56       0       0       0       0       0
   730 ;;      Temps:          0       0       0       0       0       0       0
   731 ;;      Totals:         0      56       0       0       0       0       0
   732 ;;Total ram usage:       56 bytes
   733 ;; Hardware stack levels required when called: 8
   734 ;; This function calls:
   735 ;;		_EUSART_Write
   736 ;;		_SYSTEM_Initialize
   737 ;;		___fladd
   738 ;;		___flge
   739 ;;		_sprintf
   740 ;;		_strlen
   741 ;; This function is called by:
   742 ;;		Startup code after reset
   743 ;; This function uses a non-reentrant model
   744 ;;
   745                           
   746                           	psect	text0
   747   0020EA                     __ptext0:
   748                           	callstack 0
   749   0020EA                     _main:
   750                           	callstack 23
   751   0020EA                     
   752                           ;main.c: 52:     float value = 0.00;
   753   0020EA  0E00               	movlw	0
   754   0020EC  0100               	movlb	0	; () banked
   755   0020EE  6FCE               	movwf	main@value& (0+255),b
   756   0020F0  0E00               	movlw	0
   757   0020F2  6FCF               	movwf	(main@value+1)& (0+255),b
   758   0020F4  0E00               	movlw	0
   759   0020F6  6FD0               	movwf	(main@value+2)& (0+255),b
   760   0020F8  0E00               	movlw	0
   761   0020FA  6FD1               	movwf	(main@value+3)& (0+255),b
   762   0020FC                     
   763                           ; BSR set to: 0
   764                           ;main.c: 57:     SYSTEM_Initialize();
   765   0020FC  ECA6  F015         	call	_SYSTEM_Initialize	;wreg free
   766   002100                     l3304:
   767                           
   768                           ;main.c: 75:         if(value > 2.00){
   769   002100  0E00               	movlw	0
   770   002102  6E1A               	movwf	___flge@ff1^0,c
   771   002104  0E00               	movlw	0
   772   002106  6E1B               	movwf	(___flge@ff1+1)^0,c
   773   002108  0E00               	movlw	0
   774   00210A  6E1C               	movwf	(___flge@ff1+2)^0,c
   775   00210C  0E40               	movlw	64
   776   00210E  6E1D               	movwf	(___flge@ff1+3)^0,c
   777   002110  C0CE  F01E         	movff	main@value,___flge@ff2
   778   002114  C0CF  F01F         	movff	main@value+1,___flge@ff2+1
   779   002118  C0D0  F020         	movff	main@value+2,___flge@ff2+2
   780   00211C  C0D1  F021         	movff	main@value+3,___flge@ff2+3
   781   002120  EC81  F011         	call	___flge	;wreg free
   782   002124  B0D8               	btfsc	status,0,c
   783   002126  EF97  F010         	goto	u3391
   784   00212A  EF99  F010         	goto	u3390
   785   00212E                     u3391:
   786   00212E  EFA2  F010         	goto	l3308
   787   002132                     u3390:
   788   002132                     
   789                           ;main.c: 76:             value = 0.00;
   790   002132  0E00               	movlw	0
   791   002134  0100               	movlb	0	; () banked
   792   002136  6FCE               	movwf	main@value& (0+255),b
   793   002138  0E00               	movlw	0
   794   00213A  6FCF               	movwf	(main@value+1)& (0+255),b
   795   00213C  0E00               	movlw	0
   796   00213E  6FD0               	movwf	(main@value+2)& (0+255),b
   797   002140  0E00               	movlw	0
   798   002142  6FD1               	movwf	(main@value+3)& (0+255),b
   799   002144                     l3308:
   800                           
   801                           ;main.c: 78:         sprintf(data,"%2f\n",value);
   802   002144  0E9A               	movlw	low main@data
   803   002146  0100               	movlb	0	; () banked
   804   002148  6F92               	movwf	sprintf@s& (0+255),b
   805   00214A  0E00               	movlw	high main@data
   806   00214C  6F93               	movwf	(sprintf@s+1)& (0+255),b
   807   00214E  0E01               	movlw	low STR_1
   808   002150  6F94               	movwf	sprintf@fmt& (0+255),b
   809   002152  0E06               	movlw	high STR_1
   810   002154  6F95               	movwf	(sprintf@fmt+1)& (0+255),b
   811   002156  C0CE  F096         	movff	main@value,?_sprintf+4
   812   00215A  C0CF  F097         	movff	main@value+1,?_sprintf+5
   813   00215E  C0D0  F098         	movff	main@value+2,?_sprintf+6
   814   002162  C0D1  F099         	movff	main@value+3,?_sprintf+7
   815   002166  EC27  F014         	call	_sprintf	;wreg free
   816   00216A  0E9A               	movlw	low main@data
   817   00216C  6E01               	movwf	strlen@s^0,c
   818   00216E  0E00               	movlw	high main@data
   819   002170  6E02               	movwf	(strlen@s+1)^0,c
   820   002172  EC3F  F015         	call	_strlen	;wreg free
   821   002176                     
   822                           ;main.c: 80:         for(int i = 0; i < strlen(data); i++){
   823   002176  0E00               	movlw	0
   824   002178  0100               	movlb	0	; () banked
   825   00217A  6FCD               	movwf	(main@i+1)& (0+255),b
   826   00217C  0E00               	movlw	0
   827   00217E  6FCC               	movwf	main@i& (0+255),b
   828   002180  EFCE  F010         	goto	l3318
   829   002184                     l3314:
   830                           
   831                           ; BSR set to: 0
   832                           ;main.c: 81:             EUSART_Write(data[i]);
   833   002184  0E9A               	movlw	low main@data
   834   002186  25CC               	addwf	main@i& (0+255),w,b
   835   002188  6ED9               	movwf	fsr2l,c
   836   00218A  0E00               	movlw	high main@data
   837   00218C  21CD               	addwfc	(main@i+1)& (0+255),w,b
   838   00218E  6EDA               	movwf	fsr2h,c
   839   002190  50DF               	movf	indf2,w,c
   840   002192  EC9B  F015         	call	_EUSART_Write
   841   002196                     
   842                           ;main.c: 82:         }
   843   002196  0100               	movlb	0	; () banked
   844   002198  4BCC               	infsnz	main@i& (0+255),f,b
   845   00219A  2BCD               	incf	(main@i+1)& (0+255),f,b
   846   00219C                     l3318:
   847                           
   848                           ; BSR set to: 0
   849   00219C  0E9A               	movlw	low main@data
   850   00219E  6E01               	movwf	strlen@s^0,c
   851   0021A0  0E00               	movlw	high main@data
   852   0021A2  6E02               	movwf	(strlen@s+1)^0,c
   853   0021A4  EC3F  F015         	call	_strlen	;wreg free
   854   0021A8  5001               	movf	?_strlen^0,w,c
   855   0021AA  0100               	movlb	0	; () banked
   856   0021AC  5DCC               	subwf	main@i& (0+255),w,b
   857   0021AE  5002               	movf	(?_strlen+1)^0,w,c
   858   0021B0  59CD               	subwfb	(main@i+1)& (0+255),w,b
   859   0021B2  A0D8               	btfss	status,0,c
   860   0021B4  EFDE  F010         	goto	u3401
   861   0021B8  EFE0  F010         	goto	u3400
   862   0021BC                     u3401:
   863   0021BC  EFC2  F010         	goto	l3314
   864   0021C0                     u3400:
   865   0021C0                     
   866                           ; BSR set to: 0
   867                           ;main.c: 84:         value += 0.01;
   868   0021C0  C0CE  F001         	movff	main@value,___fladd@b
   869   0021C4  C0CF  F002         	movff	main@value+1,___fladd@b+1
   870   0021C8  C0D0  F003         	movff	main@value+2,___fladd@b+2
   871   0021CC  C0D1  F004         	movff	main@value+3,___fladd@b+3
   872   0021D0  0E0A               	movlw	10
   873   0021D2  6E05               	movwf	___fladd@a^0,c
   874   0021D4  0ED7               	movlw	215
   875   0021D6  6E06               	movwf	(___fladd@a+1)^0,c
   876   0021D8  0E23               	movlw	35
   877   0021DA  6E07               	movwf	(___fladd@a+2)^0,c
   878   0021DC  0E3C               	movlw	60
   879   0021DE  6E08               	movwf	(___fladd@a+3)^0,c
   880   0021E0  EC05  F008         	call	___fladd	;wreg free
   881   0021E4  C001  F0CE         	movff	?___fladd,main@value
   882   0021E8  C002  F0CF         	movff	?___fladd+1,main@value+1
   883   0021EC  C003  F0D0         	movff	?___fladd+2,main@value+2
   884   0021F0  C004  F0D1         	movff	?___fladd+3,main@value+3
   885   0021F4  EF80  F010         	goto	l3304
   886   0021F8  EF00  F000         	goto	start
   887   0021FC                     __end_of_main:
   888                           	callstack 0
   889                           
   890 ;; *************** function _strlen *****************
   891 ;; Defined at:
   892 ;;		line 5 in file "C:\Program Files\Microchip\xc8\v2.41\pic\sources\c99\common\strlen.c"
   893 ;; Parameters:    Size  Location     Type
   894 ;;  s               2    0[COMRAM] PTR const unsigned char 
   895 ;;		 -> main@data(50), 
   896 ;; Auto vars:     Size  Location     Type
   897 ;;  a               2    2[COMRAM] PTR const unsigned char 
   898 ;;		 -> main@data(50), 
   899 ;; Return value:  Size  Location     Type
   900 ;;                  2    0[COMRAM] unsigned int 
   901 ;; Registers used:
   902 ;;		wreg, fsr2l, fsr2h, status,2, status,0
   903 ;; Tracked objects:
   904 ;;		On entry : 0/0
   905 ;;		On exit  : 0/0
   906 ;;		Unchanged: 0/0
   907 ;; Data sizes:     COMRAM   BANK0   BANK1   BANK2   BANK3   BANK4   BANK5
   908 ;;      Params:         2       0       0       0       0       0       0
   909 ;;      Locals:         2       0       0       0       0       0       0
   910 ;;      Temps:          0       0       0       0       0       0       0
   911 ;;      Totals:         4       0       0       0       0       0       0
   912 ;;Total ram usage:        4 bytes
   913 ;; Hardware stack levels used: 1
   914 ;; This function calls:
   915 ;;		Nothing
   916 ;; This function is called by:
   917 ;;		_main
   918 ;; This function uses a non-reentrant model
   919 ;;
   920                           
   921                           	psect	text1
   922   002A7E                     __ptext1:
   923                           	callstack 0
   924   002A7E                     _strlen:
   925                           	callstack 30
   926   002A7E  C001  F003         	movff	strlen@s,strlen@a
   927   002A82  C002  F004         	movff	strlen@s+1,strlen@a+1
   928   002A86  EF47  F015         	goto	l3290
   929   002A8A                     l3288:
   930   002A8A  4A01               	infsnz	strlen@s^0,f,c
   931   002A8C  2A02               	incf	(strlen@s+1)^0,f,c
   932   002A8E                     l3290:
   933   002A8E  C001  FFD9         	movff	strlen@s,fsr2l
   934   002A92  C002  FFDA         	movff	strlen@s+1,fsr2h
   935   002A96  50DF               	movf	indf2,w,c
   936   002A98  A4D8               	btfss	status,2,c
   937   002A9A  EF51  F015         	goto	u3371
   938   002A9E  EF53  F015         	goto	u3370
   939   002AA2                     u3371:
   940   002AA2  EF45  F015         	goto	l3288
   941   002AA6                     u3370:
   942   002AA6  5003               	movf	strlen@a^0,w,c
   943   002AA8  5C01               	subwf	strlen@s^0,w,c
   944   002AAA  6E01               	movwf	?_strlen^0,c
   945   002AAC  5004               	movf	(strlen@a+1)^0,w,c
   946   002AAE  5802               	subwfb	(strlen@s+1)^0,w,c
   947   002AB0  6E02               	movwf	(?_strlen+1)^0,c
   948   002AB2  0012               	return		;funcret
   949   002AB4                     __end_of_strlen:
   950                           	callstack 0
   951                           
   952 ;; *************** function _sprintf *****************
   953 ;; Defined at:
   954 ;;		line 9 in file "C:\Program Files\Microchip\xc8\v2.41\pic\sources\c99\common\nf_sprintf.c"
   955 ;; Parameters:    Size  Location     Type
   956 ;;  s               2   50[BANK0 ] PTR unsigned char 
   957 ;;		 -> main@data(50), 
   958 ;;  fmt             2   52[BANK0 ] PTR const unsigned char 
   959 ;;		 -> STR_1(5), 
   960 ;; Auto vars:     Size  Location     Type
   961 ;;  f              12   73[COMRAM] struct _IO_FILE
   962 ;;  ap              2   71[COMRAM] PTR void [1]
   963 ;;		 -> ?_sprintf(2), 
   964 ;;  ret             2    0        int 
   965 ;; Return value:  Size  Location     Type
   966 ;;                  2   50[BANK0 ] int 
   967 ;; Registers used:
   968 ;;		wreg, fsr1l, fsr1h, fsr2l, fsr2h, status,2, status,0, tblptrl, tblptrh, tblptru, prodl, prodh, cstack
   969 ;; Tracked objects:
   970 ;;		On entry : 0/0
   971 ;;		On exit  : 0/0
   972 ;;		Unchanged: 0/0
   973 ;; Data sizes:     COMRAM   BANK0   BANK1   BANK2   BANK3   BANK4   BANK5
   974 ;;      Params:         0       8       0       0       0       0       0
   975 ;;      Locals:        14       0       0       0       0       0       0
   976 ;;      Temps:          0       0       0       0       0       0       0
   977 ;;      Totals:        14       8       0       0       0       0       0
   978 ;;Total ram usage:       22 bytes
   979 ;; Hardware stack levels used: 1
   980 ;; Hardware stack levels required when called: 7
   981 ;; This function calls:
   982 ;;		_vfprintf
   983 ;; This function is called by:
   984 ;;		_main
   985 ;; This function uses a non-reentrant model
   986 ;;
   987                           
   988                           	psect	text2
   989   00284E                     __ptext2:
   990                           	callstack 0
   991   00284E                     _sprintf:
   992                           	callstack 23
   993   00284E  0E96               	movlw	low (?_sprintf+4)
   994   002850  6E48               	movwf	sprintf@ap^0,c
   995   002852  0E00               	movlw	high (?_sprintf+4)
   996   002854  6E49               	movwf	(sprintf@ap+1)^0,c
   997   002856  C092  F04A         	movff	sprintf@s,sprintf@f
   998   00285A  C093  F04B         	movff	sprintf@s+1,sprintf@f+1
   999   00285E  0E00               	movlw	0
  1000   002860  6E4E               	movwf	(sprintf@f+4)^0,c
  1001   002862  0E00               	movlw	0
  1002   002864  6E4D               	movwf	(sprintf@f+3)^0,c
  1003   002866  0E00               	movlw	0
  1004   002868  6E55               	movwf	(sprintf@f+11)^0,c
  1005   00286A  0E00               	movlw	0
  1006   00286C  6E54               	movwf	(sprintf@f+10)^0,c
  1007   00286E  0E4A               	movlw	low sprintf@f
  1008   002870  0100               	movlb	0	; () banked
  1009   002872  6F8C               	movwf	vfprintf@fp& (0+255),b
  1010   002874  0E00               	movlw	high sprintf@f
  1011   002876  6F8D               	movwf	(vfprintf@fp+1)& (0+255),b
  1012   002878  C094  F08E         	movff	sprintf@fmt,vfprintf@fmt
  1013   00287C  C095  F08F         	movff	sprintf@fmt+1,vfprintf@fmt+1
  1014   002880  0E48               	movlw	low sprintf@ap
  1015   002882  6F90               	movwf	vfprintf@ap& (0+255),b
  1016   002884  0E00               	movlw	high sprintf@ap
  1017   002886  6F91               	movwf	(vfprintf@ap+1)& (0+255),b
  1018   002888  EC4F  F014         	call	_vfprintf	;wreg free
  1019   00288C  504D               	movf	(sprintf@f+3)^0,w,c
  1020   00288E  0100               	movlb	0	; () banked
  1021   002890  2592               	addwf	sprintf@s& (0+255),w,b
  1022   002892  6ED9               	movwf	fsr2l,c
  1023   002894  504E               	movf	(sprintf@f+4)^0,w,c
  1024   002896  2193               	addwfc	(sprintf@s+1)& (0+255),w,b
  1025   002898  6EDA               	movwf	fsr2h,c
  1026   00289A  6ADF               	clrf	indf2,c
  1027   00289C                     
  1028                           ; BSR set to: 0
  1029   00289C  0012               	return		;funcret
  1030   00289E                     __end_of_sprintf:
  1031                           	callstack 0
  1032                           
  1033 ;; *************** function _vfprintf *****************
  1034 ;; Defined at:
  1035 ;;		line 1546 in file "C:\Program Files\Microchip\xc8\v2.41\pic\sources\c99\common\doprnt.c"
  1036 ;; Parameters:    Size  Location     Type
  1037 ;;  fp              2   44[BANK0 ] PTR struct _IO_FILE
  1038 ;;		 -> sprintf@f(12), 
  1039 ;;  fmt             2   46[BANK0 ] PTR const unsigned char 
  1040 ;;		 -> STR_1(5), 
  1041 ;;  ap              2   48[BANK0 ] PTR PTR void 
  1042 ;;		 -> sprintf@ap(2), 
  1043 ;; Auto vars:     Size  Location     Type
  1044 ;;  cfmt            2   69[COMRAM] PTR unsigned char 
  1045 ;;		 -> STR_1(5), 
  1046 ;; Return value:  Size  Location     Type
  1047 ;;                  2   44[BANK0 ] int 
  1048 ;; Registers used:
  1049 ;;		wreg, fsr1l, fsr1h, fsr2l, fsr2h, status,2, status,0, tblptrl, tblptrh, tblptru, prodl, prodh, cstack
  1050 ;; Tracked objects:
  1051 ;;		On entry : 0/0
  1052 ;;		On exit  : 0/0
  1053 ;;		Unchanged: 0/0
  1054 ;; Data sizes:     COMRAM   BANK0   BANK1   BANK2   BANK3   BANK4   BANK5
  1055 ;;      Params:         0       6       0       0       0       0       0
  1056 ;;      Locals:         2       0       0       0       0       0       0
  1057 ;;      Temps:          0       0       0       0       0       0       0
  1058 ;;      Totals:         2       6       0       0       0       0       0
  1059 ;;Total ram usage:        8 bytes
  1060 ;; Hardware stack levels used: 1
  1061 ;; Hardware stack levels required when called: 6
  1062 ;; This function calls:
  1063 ;;		_vfpfcnvrt
  1064 ;; This function is called by:
  1065 ;;		_sprintf
  1066 ;; This function uses a non-reentrant model
  1067 ;;
  1068                           
  1069                           	psect	text3
  1070   00289E                     __ptext3:
  1071                           	callstack 0
  1072   00289E                     _vfprintf:
  1073                           	callstack 23
  1074   00289E                     
  1075                           ;C:\Program Files\Microchip\xc8\v2.41\pic\sources\c99\common\doprnt.c: 1546: int vfprint
      +                          f(FILE *fp, const char *fmt, va_list ap);C:\Program Files\Microchip\xc8\v2.41\pic\source
      +                          s\c99\common\doprnt.c: 1547: {;C:\Program Files\Microchip\xc8\v2.41\pic\sources\c99\comm
      +                          on\doprnt.c: 1549:     char *cfmt;;C:\Program Files\Microchip\xc8\v2.41\pic\sources\c99\
      +                          common\doprnt.c: 1551:     cfmt = (char *)fmt;
  1076   00289E  C08E  F046         	movff	vfprintf@fmt,vfprintf@cfmt
  1077   0028A2  C08F  F047         	movff	vfprintf@fmt+1,vfprintf@cfmt+1
  1078                           
  1079                           ;C:\Program Files\Microchip\xc8\v2.41\pic\sources\c99\common\doprnt.c: 1555:     while (
      +                          *cfmt) {
  1080   0028A6  EF63  F014         	goto	l3264
  1081   0028AA                     l3262:
  1082                           
  1083                           ;C:\Program Files\Microchip\xc8\v2.41\pic\sources\c99\common\doprnt.c: 1559:    vfpfcnvr
      +                          t(fp, &cfmt, ap);
  1084   0028AA  C08C  F037         	movff	vfprintf@fp,vfpfcnvrt@fp
  1085   0028AE  C08D  F038         	movff	vfprintf@fp+1,vfpfcnvrt@fp+1
  1086   0028B2  0E46               	movlw	low vfprintf@cfmt
  1087   0028B4  6E39               	movwf	vfpfcnvrt@fmt^0,c
  1088   0028B6  0E00               	movlw	high vfprintf@cfmt
  1089   0028B8  6E3A               	movwf	(vfpfcnvrt@fmt+1)^0,c
  1090   0028BA  C090  F03B         	movff	vfprintf@ap,vfpfcnvrt@ap
  1091   0028BE  C091  F03C         	movff	vfprintf@ap+1,vfpfcnvrt@ap+1
  1092   0028C2  EC47  F00E         	call	_vfpfcnvrt	;wreg free
  1093   0028C6                     l3264:
  1094                           
  1095                           ;C:\Program Files\Microchip\xc8\v2.41\pic\sources\c99\common\doprnt.c: 1555:     while (
      +                          *cfmt) {
  1096   0028C6  C046  FFF6         	movff	vfprintf@cfmt,tblptrl
  1097   0028CA  C047  FFF7         	movff	vfprintf@cfmt+1,tblptrh
  1098   0028CE                     	if	0	;tblptru may be non-zero
  1099   0028CE                     	endif
  1100   0028CE                     	if	0	;tblptru may be non-zero
  1101   0028CE                     	endif
  1102   0028CE  0008               	tblrd		*
  1103   0028D0  50F5               	movf	tablat,w,c
  1104   0028D2  0900               	iorlw	0
  1105   0028D4  A4D8               	btfss	status,2,c
  1106   0028D6  EF6F  F014         	goto	u3361
  1107   0028DA  EF71  F014         	goto	u3360
  1108   0028DE                     u3361:
  1109   0028DE  EF55  F014         	goto	l3262
  1110   0028E2                     u3360:
  1111   0028E2                     
  1112                           ;C:\Program Files\Microchip\xc8\v2.41\pic\sources\c99\common\doprnt.c: 1564:  return 0;
  1113   0028E2  0E00               	movlw	0
  1114   0028E4  0100               	movlb	0	; () banked
  1115   0028E6  6F8D               	movwf	(?_vfprintf+1)& (0+255),b
  1116   0028E8  0E00               	movlw	0
  1117   0028EA  6F8C               	movwf	?_vfprintf& (0+255),b
  1118   0028EC                     
  1119                           ; BSR set to: 0
  1120   0028EC  0012               	return		;funcret
  1121   0028EE                     __end_of_vfprintf:
  1122                           	callstack 0
  1123                           
  1124 ;; *************** function _vfpfcnvrt *****************
  1125 ;; Defined at:
  1126 ;;		line 1048 in file "C:\Program Files\Microchip\xc8\v2.41\pic\sources\c99\common\doprnt.c"
  1127 ;; Parameters:    Size  Location     Type
  1128 ;;  fp              2   54[COMRAM] PTR struct _IO_FILE
  1129 ;;		 -> sprintf@f(12), 
  1130 ;;  fmt             2   56[COMRAM] PTR PTR unsigned char 
  1131 ;;		 -> vfprintf@cfmt(2), 
  1132 ;;  ap              2   58[COMRAM] PTR PTR void 
  1133 ;;		 -> sprintf@ap(2), 
  1134 ;; Auto vars:     Size  Location     Type
  1135 ;;  convarg         4   62[COMRAM] struct .
  1136 ;;  cp              2   67[COMRAM] PTR unsigned char 
  1137 ;;		 -> STR_1(5), 
  1138 ;;  i               2    0        int 
  1139 ;;  done            2    0        int 
  1140 ;;  c               1   66[COMRAM] unsigned char 
  1141 ;; Return value:  Size  Location     Type
  1142 ;;                  1    wreg      void 
  1143 ;; Registers used:
  1144 ;;		wreg, fsr1l, fsr1h, fsr2l, fsr2h, status,2, status,0, tblptrl, tblptrh, tblptru, prodl, prodh, cstack
  1145 ;; Tracked objects:
  1146 ;;		On entry : 0/0
  1147 ;;		On exit  : 0/0
  1148 ;;		Unchanged: 0/0
  1149 ;; Data sizes:     COMRAM   BANK0   BANK1   BANK2   BANK3   BANK4   BANK5
  1150 ;;      Params:         6       0       0       0       0       0       0
  1151 ;;      Locals:         7       0       0       0       0       0       0
  1152 ;;      Temps:          2       0       0       0       0       0       0
  1153 ;;      Totals:        15       0       0       0       0       0       0
  1154 ;;Total ram usage:       15 bytes
  1155 ;; Hardware stack levels used: 1
  1156 ;; Hardware stack levels required when called: 5
  1157 ;; This function calls:
  1158 ;;		_efgtoa
  1159 ;;		_fputc
  1160 ;;		_read_prec_or_width
  1161 ;; This function is called by:
  1162 ;;		_vfprintf
  1163 ;; This function uses a non-reentrant model
  1164 ;;
  1165                           
  1166                           	psect	text4
  1167   001C8E                     __ptext4:
  1168                           	callstack 0
  1169   001C8E                     _vfpfcnvrt:
  1170                           	callstack 23
  1171   001C8E                     
  1172                           ;C:\Program Files\Microchip\xc8\v2.41\pic\sources\c99\common\doprnt.c: 1048: vfpfcnvrt(F
      +                          ILE *fp, char *fmt[], va_list ap);C:\Program Files\Microchip\xc8\v2.41\pic\sources\c99\c
      +                          ommon\doprnt.c: 1049: {;C:\Program Files\Microchip\xc8\v2.41\pic\sources\c99\common\dopr
      +                          nt.c: 1050:     char c, *cp;;C:\Program Files\Microchip\xc8\v2.41\pic\sources\c99\common
      +                          \doprnt.c: 1051:     int done, i;;C:\Program Files\Microchip\xc8\v2.41\pic\sources\c99\c
      +                          ommon\doprnt.c: 1059:  } convarg;;C:\Program Files\Microchip\xc8\v2.41\pic\sources\c99\c
      +                          ommon\doprnt.c: 1062:     if ((*fmt)[0] == '%') {
  1173   001C8E  C039  FFD9         	movff	vfpfcnvrt@fmt,fsr2l
  1174   001C92  C03A  FFDA         	movff	vfpfcnvrt@fmt+1,fsr2h
  1175   001C96  CFDE FFF6          	movff	postinc2,tblptrl
  1176   001C9A  CFDD FFF7          	movff	postdec2,tblptrh
  1177   001C9E                     	if	0	;tblptru may be non-zero
  1178   001C9E                     	endif
  1179   001C9E                     	if	0	;tblptru may be non-zero
  1180   001C9E                     	endif
  1181   001C9E  0008               	tblrd		*
  1182   001CA0  50F5               	movf	tablat,w,c
  1183   001CA2  0A25               	xorlw	37
  1184   001CA4  A4D8               	btfss	status,2,c
  1185   001CA6  EF57  F00E         	goto	u3331
  1186   001CAA  EF59  F00E         	goto	u3330
  1187   001CAE                     u3331:
  1188   001CAE  EF57  F00F         	goto	l3218
  1189   001CB2                     u3330:
  1190   001CB2                     
  1191                           ;C:\Program Files\Microchip\xc8\v2.41\pic\sources\c99\common\doprnt.c: 1063:         ++*
      +                          fmt;
  1192   001CB2  C039  FFD9         	movff	vfpfcnvrt@fmt,fsr2l
  1193   001CB6  C03A  FFDA         	movff	vfpfcnvrt@fmt+1,fsr2h
  1194   001CBA  2ADE               	incf	postinc2,f,c
  1195   001CBC  0E00               	movlw	0
  1196   001CBE  22DD               	addwfc	postdec2,f,c
  1197   001CC0                     
  1198                           ;C:\Program Files\Microchip\xc8\v2.41\pic\sources\c99\common\doprnt.c: 1065:         fla
      +                          gs = width = 0;
  1199   001CC0  0E00               	movlw	0
  1200   001CC2  6E5B               	movwf	(_width+1)^0,c
  1201   001CC4  0E00               	movlw	0
  1202   001CC6  6E5A               	movwf	_width^0,c
  1203   001CC8  C05A  F05E         	movff	_width,_flags
  1204   001CCC                     
  1205                           ;C:\Program Files\Microchip\xc8\v2.41\pic\sources\c99\common\doprnt.c: 1066:         pre
      +                          c = -1;
  1206   001CCC  685C               	setf	_prec^0,c
  1207   001CCE  685D               	setf	(_prec+1)^0,c
  1208   001CD0                     
  1209                           ;C:\Program Files\Microchip\xc8\v2.41\pic\sources\c99\common\doprnt.c: 1117:   width = r
      +                          ead_prec_or_width(fmt, ap);
  1210   001CD0  C039  F007         	movff	vfpfcnvrt@fmt,read_prec_or_width@fmt
  1211   001CD4  C03A  F008         	movff	vfpfcnvrt@fmt+1,read_prec_or_width@fmt+1
  1212   001CD8  C03B  F009         	movff	vfpfcnvrt@ap,read_prec_or_width@ap
  1213   001CDC  C03C  F00A         	movff	vfpfcnvrt@ap+1,read_prec_or_width@ap+1
  1214   001CE0  ECE7  F012         	call	_read_prec_or_width	;wreg free
  1215   001CE4  C007  F05A         	movff	?_read_prec_or_width,_width
  1216   001CE8  C008  F05B         	movff	?_read_prec_or_width+1,_width+1
  1217   001CEC                     
  1218                           ;C:\Program Files\Microchip\xc8\v2.41\pic\sources\c99\common\doprnt.c: 1118:   if (width
      +                           < 0) {
  1219   001CEC  BE5B               	btfsc	(_width+1)^0,7,c
  1220   001CEE  EF7D  F00E         	goto	u3340
  1221   001CF2  EF7B  F00E         	goto	u3341
  1222   001CF6                     u3341:
  1223   001CF6  EF82  F00E         	goto	l3180
  1224   001CFA                     u3340:
  1225   001CFA                     
  1226                           ;C:\Program Files\Microchip\xc8\v2.41\pic\sources\c99\common\doprnt.c: 1119:    flags |=
      +                           (1 << 0);
  1227   001CFA  805E               	bsf	_flags^0,0,c
  1228                           
  1229                           ;C:\Program Files\Microchip\xc8\v2.41\pic\sources\c99\common\doprnt.c: 1120:    width = 
      +                          -width;
  1230   001CFC  6C5A               	negf	_width^0,c
  1231   001CFE  1E5B               	comf	(_width+1)^0,f,c
  1232   001D00  B0D8               	btfsc	status,0,c
  1233   001D02  2A5B               	incf	(_width+1)^0,f,c
  1234   001D04                     l3180:
  1235                           
  1236                           ;C:\Program Files\Microchip\xc8\v2.41\pic\sources\c99\common\doprnt.c: 1418:   cp = *fmt
      +                          ;
  1237   001D04  C039  FFD9         	movff	vfpfcnvrt@fmt,fsr2l
  1238   001D08  C03A  FFDA         	movff	vfpfcnvrt@fmt+1,fsr2h
  1239   001D0C  CFDE F044          	movff	postinc2,vfpfcnvrt@cp
  1240   001D10  CFDD F045          	movff	postdec2,vfpfcnvrt@cp+1
  1241   001D14                     
  1242                           ;C:\Program Files\Microchip\xc8\v2.41\pic\sources\c99\common\doprnt.c: 1419:   c = *cp;
  1243   001D14  C044  FFF6         	movff	vfpfcnvrt@cp,tblptrl
  1244   001D18  C045  FFF7         	movff	vfpfcnvrt@cp+1,tblptrh
  1245   001D1C                     	if	0	;tblptru may be non-zero
  1246   001D1C                     	endif
  1247   001D1C                     	if	0	;tblptru may be non-zero
  1248   001D1C                     	endif
  1249   001D1C  0008               	tblrd		*
  1250   001D1E  CFF5 F043          	movff	tablat,vfpfcnvrt@c
  1251                           
  1252                           ;C:\Program Files\Microchip\xc8\v2.41\pic\sources\c99\common\doprnt.c: 1420:   switch(c)
      +                           {
  1253   001D22  EF9F  F00E         	goto	l3192
  1254   001D26                     l3184:
  1255                           
  1256                           ;C:\Program Files\Microchip\xc8\v2.41\pic\sources\c99\common\doprnt.c: 1424:     cp++;
  1257   001D26  4A44               	infsnz	vfpfcnvrt@cp^0,f,c
  1258   001D28  2A45               	incf	(vfpfcnvrt@cp+1)^0,f,c
  1259                           
  1260                           ;C:\Program Files\Microchip\xc8\v2.41\pic\sources\c99\common\doprnt.c: 1425:     break;
  1261   001D2A  EFB8  F00E         	goto	l3194
  1262   001D2E                     l3186:
  1263                           
  1264                           ;C:\Program Files\Microchip\xc8\v2.41\pic\sources\c99\common\doprnt.c: 1450:     c = 'l'
      +                          ;
  1265   001D2E  0E6C               	movlw	108
  1266   001D30  6E43               	movwf	vfpfcnvrt@c^0,c
  1267                           
  1268                           ;C:\Program Files\Microchip\xc8\v2.41\pic\sources\c99\common\doprnt.c: 1451:     break;
  1269   001D32  EFB8  F00E         	goto	l3194
  1270   001D36                     l3188:
  1271                           
  1272                           ;C:\Program Files\Microchip\xc8\v2.41\pic\sources\c99\common\doprnt.c: 1453:     c = 0;
  1273   001D36  0E00               	movlw	0
  1274   001D38  6E43               	movwf	vfpfcnvrt@c^0,c
  1275                           
  1276                           ;C:\Program Files\Microchip\xc8\v2.41\pic\sources\c99\common\doprnt.c: 1454:     break;
  1277   001D3A  EFB8  F00E         	goto	l3194
  1278   001D3E                     l3192:
  1279   001D3E  5043               	movf	vfpfcnvrt@c^0,w,c
  1280   001D40  6E3D               	movwf	??_vfpfcnvrt^0,c
  1281   001D42  6A3E               	clrf	(??_vfpfcnvrt+1)^0,c
  1282                           
  1283                           ; Switch on 2 bytes has been partitioned into a top level switch of size 1, and 1 sub-sw
      +                          itches
  1284                           ; Switch size 1, requested type "simple"
  1285                           ; Number of cases is 1, Range of values is 0 to 0
  1286                           ; switch strategies available:
  1287                           ; Name         Instructions Cycles
  1288                           ; simple_byte            4     3 (average)
  1289                           ;	Chosen strategy is simple_byte
  1290   001D44  503E               	movf	(??_vfpfcnvrt+1)^0,w,c
  1291   001D46  0A00               	xorlw	0	; case 0
  1292   001D48  B4D8               	btfsc	status,2,c
  1293   001D4A  EFA9  F00E         	goto	l3382
  1294   001D4E  EF9B  F00E         	goto	l3188
  1295   001D52                     l3382:
  1296                           
  1297                           ; Switch size 1, requested type "simple"
  1298                           ; Number of cases is 3, Range of values is 76 to 108
  1299                           ; switch strategies available:
  1300                           ; Name         Instructions Cycles
  1301                           ; simple_byte           10     6 (average)
  1302                           ;	Chosen strategy is simple_byte
  1303   001D52  503D               	movf	??_vfpfcnvrt^0,w,c
  1304   001D54  0A4C               	xorlw	76	; case 76
  1305   001D56  B4D8               	btfsc	status,2,c
  1306   001D58  EF93  F00E         	goto	l3184
  1307   001D5C  0A2A               	xorlw	42	; case 102
  1308   001D5E  B4D8               	btfsc	status,2,c
  1309   001D60  EF97  F00E         	goto	l3186
  1310   001D64  0A0A               	xorlw	10	; case 108
  1311   001D66  B4D8               	btfsc	status,2,c
  1312   001D68  EF93  F00E         	goto	l3184
  1313   001D6C  EF9B  F00E         	goto	l3188
  1314   001D70                     l3194:
  1315   001D70  C044  FFF6         	movff	vfpfcnvrt@cp,tblptrl
  1316   001D74  C045  FFF7         	movff	vfpfcnvrt@cp+1,tblptrh
  1317   001D78                     	if	0	;tblptru may be non-zero
  1318   001D78                     	endif
  1319   001D78                     	if	0	;tblptru may be non-zero
  1320   001D78                     	endif
  1321   001D78  0008               	tblrd		*
  1322   001D7A  50F5               	movf	tablat,w,c
  1323   001D7C  0A66               	xorlw	102
  1324   001D7E  A4D8               	btfss	status,2,c
  1325   001D80  EFC4  F00E         	goto	u3351
  1326   001D84  EFC6  F00E         	goto	u3350
  1327   001D88                     u3351:
  1328   001D88  EF4E  F00F         	goto	l3214
  1329   001D8C                     u3350:
  1330   001D8C  EFFC  F00E         	goto	l3202
  1331   001D90                     l3196:
  1332                           
  1333                           ;C:\Program Files\Microchip\xc8\v2.41\pic\sources\c99\common\doprnt.c: 1485:      convar
      +                          g.f = (long double)(*(double *)__va_arg(*(double **)ap, (double)0));
  1334   001D90  C03B  FFD9         	movff	vfpfcnvrt@ap,fsr2l
  1335   001D94  C03C  FFDA         	movff	vfpfcnvrt@ap+1,fsr2h
  1336   001D98  CFDF F03D          	movff	indf2,??_vfpfcnvrt
  1337   001D9C  0E04               	movlw	4
  1338   001D9E  26DE               	addwf	postinc2,f,c
  1339   001DA0  CFDF F03E          	movff	indf2,??_vfpfcnvrt+1
  1340   001DA4  0E00               	movlw	0
  1341   001DA6  22DD               	addwfc	postdec2,f,c
  1342   001DA8  C03D  FFD9         	movff	??_vfpfcnvrt,fsr2l
  1343   001DAC  C03E  FFDA         	movff	??_vfpfcnvrt+1,fsr2h
  1344   001DB0  CFDE F03F          	movff	postinc2,vfpfcnvrt@convarg
  1345   001DB4  CFDE F040          	movff	postinc2,vfpfcnvrt@convarg+1
  1346   001DB8  CFDE F041          	movff	postinc2,vfpfcnvrt@convarg+2
  1347   001DBC  CFDE F042          	movff	postinc2,vfpfcnvrt@convarg+3
  1348                           
  1349                           ;C:\Program Files\Microchip\xc8\v2.41\pic\sources\c99\common\doprnt.c: 1486:      break;
  1350   001DC0  EF11  F00F         	goto	l3204
  1351   001DC4                     l3198:
  1352                           
  1353                           ;C:\Program Files\Microchip\xc8\v2.41\pic\sources\c99\common\doprnt.c: 1488:      convar
      +                          g.f = (long double)(*(long double *)__va_arg(*(long double **)ap, (long double)0));
  1354   001DC4  C03B  FFD9         	movff	vfpfcnvrt@ap,fsr2l
  1355   001DC8  C03C  FFDA         	movff	vfpfcnvrt@ap+1,fsr2h
  1356   001DCC  CFDF F03D          	movff	indf2,??_vfpfcnvrt
  1357   001DD0  0E04               	movlw	4
  1358   001DD2  26DE               	addwf	postinc2,f,c
  1359   001DD4  CFDF F03E          	movff	indf2,??_vfpfcnvrt+1
  1360   001DD8  0E00               	movlw	0
  1361   001DDA  22DD               	addwfc	postdec2,f,c
  1362   001DDC  C03D  FFD9         	movff	??_vfpfcnvrt,fsr2l
  1363   001DE0  C03E  FFDA         	movff	??_vfpfcnvrt+1,fsr2h
  1364   001DE4  CFDE F03F          	movff	postinc2,vfpfcnvrt@convarg
  1365   001DE8  CFDE F040          	movff	postinc2,vfpfcnvrt@convarg+1
  1366   001DEC  CFDE F041          	movff	postinc2,vfpfcnvrt@convarg+2
  1367   001DF0  CFDE F042          	movff	postinc2,vfpfcnvrt@convarg+3
  1368                           
  1369                           ;C:\Program Files\Microchip\xc8\v2.41\pic\sources\c99\common\doprnt.c: 1489:      break;
  1370   001DF4  EF11  F00F         	goto	l3204
  1371   001DF8                     l3202:
  1372   001DF8  5043               	movf	vfpfcnvrt@c^0,w,c
  1373   001DFA  6E3D               	movwf	??_vfpfcnvrt^0,c
  1374   001DFC  6A3E               	clrf	(??_vfpfcnvrt+1)^0,c
  1375                           
  1376                           ; Switch on 2 bytes has been partitioned into a top level switch of size 1, and 1 sub-sw
      +                          itches
  1377                           ; Switch size 1, requested type "simple"
  1378                           ; Number of cases is 1, Range of values is 0 to 0
  1379                           ; switch strategies available:
  1380                           ; Name         Instructions Cycles
  1381                           ; simple_byte            4     3 (average)
  1382                           ;	Chosen strategy is simple_byte
  1383   001DFE  503E               	movf	(??_vfpfcnvrt+1)^0,w,c
  1384   001E00  0A00               	xorlw	0	; case 0
  1385   001E02  B4D8               	btfsc	status,2,c
  1386   001E04  EF06  F00F         	goto	l3384
  1387   001E08  EF11  F00F         	goto	l3204
  1388   001E0C                     l3384:
  1389                           
  1390                           ; Switch size 1, requested type "simple"
  1391                           ; Number of cases is 2, Range of values is 76 to 108
  1392                           ; switch strategies available:
  1393                           ; Name         Instructions Cycles
  1394                           ; simple_byte            7     4 (average)
  1395                           ;	Chosen strategy is simple_byte
  1396   001E0C  503D               	movf	??_vfpfcnvrt^0,w,c
  1397   001E0E  0A4C               	xorlw	76	; case 76
  1398   001E10  B4D8               	btfsc	status,2,c
  1399   001E12  EFE2  F00E         	goto	l3198
  1400   001E16  0A20               	xorlw	32	; case 108
  1401   001E18  B4D8               	btfsc	status,2,c
  1402   001E1A  EFC8  F00E         	goto	l3196
  1403   001E1E  EF11  F00F         	goto	l3204
  1404   001E22                     l3204:
  1405                           
  1406                           ;C:\Program Files\Microchip\xc8\v2.41\pic\sources\c99\common\doprnt.c: 1491:    *fmt = c
      +                          p+1;
  1407   001E22  0E01               	movlw	1
  1408   001E24  2444               	addwf	vfpfcnvrt@cp^0,w,c
  1409   001E26  6E3D               	movwf	??_vfpfcnvrt^0,c
  1410   001E28  0E00               	movlw	0
  1411   001E2A  2045               	addwfc	(vfpfcnvrt@cp+1)^0,w,c
  1412   001E2C  6E3E               	movwf	(??_vfpfcnvrt+1)^0,c
  1413   001E2E  C039  FFD9         	movff	vfpfcnvrt@fmt,fsr2l
  1414   001E32  C03A  FFDA         	movff	vfpfcnvrt@fmt+1,fsr2h
  1415   001E36  C03D  FFDE         	movff	??_vfpfcnvrt,postinc2
  1416   001E3A  C03E  FFDD         	movff	??_vfpfcnvrt+1,postdec2
  1417                           
  1418                           ;C:\Program Files\Microchip\xc8\v2.41\pic\sources\c99\common\doprnt.c: 1492:    switch (
      +                          *cp) {
  1419   001E3E  EF38  F00F         	goto	l3212
  1420   001E42                     l3206:
  1421                           
  1422                           ;C:\Program Files\Microchip\xc8\v2.41\pic\sources\c99\common\doprnt.c: 1519:      return
      +                           (void) efgtoa(fp, convarg.f, *cp);;	Return value of _vfpfcnvrt is never used
  1423   001E42  C037  F02E         	movff	vfpfcnvrt@fp,efgtoa@fp
  1424   001E46  C038  F02F         	movff	vfpfcnvrt@fp+1,efgtoa@fp+1
  1425   001E4A  C03F  F030         	movff	vfpfcnvrt@convarg,efgtoa@f
  1426   001E4E  C040  F031         	movff	vfpfcnvrt@convarg+1,efgtoa@f+1
  1427   001E52  C041  F032         	movff	vfpfcnvrt@convarg+2,efgtoa@f+2
  1428   001E56  C042  F033         	movff	vfpfcnvrt@convarg+3,efgtoa@f+3
  1429   001E5A  C044  FFF6         	movff	vfpfcnvrt@cp,tblptrl
  1430   001E5E  C045  FFF7         	movff	vfpfcnvrt@cp+1,tblptrh
  1431   001E62                     	if	0	;tblptru may be non-zero
  1432   001E62                     	endif
  1433   001E62                     	if	0	;tblptru may be non-zero
  1434   001E62                     	endif
  1435   001E62  0008               	tblrd		*
  1436   001E64  CFF5 F034          	movff	tablat,efgtoa@c
  1437   001E68  EC08  F003         	call	_efgtoa	;wreg free
  1438   001E6C  EF6B  F00F         	goto	l957
  1439   001E70                     l3212:
  1440   001E70  C044  FFF6         	movff	vfpfcnvrt@cp,tblptrl
  1441   001E74  C045  FFF7         	movff	vfpfcnvrt@cp+1,tblptrh
  1442   001E78                     	if	0	;tblptru may be non-zero
  1443   001E78                     	endif
  1444   001E78                     	if	0	;tblptru may be non-zero
  1445   001E78                     	endif
  1446   001E78  0008               	tblrd		*
  1447   001E7A  50F5               	movf	tablat,w,c
  1448   001E7C  6E3D               	movwf	??_vfpfcnvrt^0,c
  1449   001E7E  6A3E               	clrf	(??_vfpfcnvrt+1)^0,c
  1450                           
  1451                           ; Switch on 2 bytes has been partitioned into a top level switch of size 1, and 1 sub-sw
      +                          itches
  1452                           ; Switch size 1, requested type "simple"
  1453                           ; Number of cases is 1, Range of values is 0 to 0
  1454                           ; switch strategies available:
  1455                           ; Name         Instructions Cycles
  1456                           ; simple_byte            4     3 (average)
  1457                           ;	Chosen strategy is simple_byte
  1458   001E80  503E               	movf	(??_vfpfcnvrt+1)^0,w,c
  1459   001E82  0A00               	xorlw	0	; case 0
  1460   001E84  B4D8               	btfsc	status,2,c
  1461   001E86  EF47  F00F         	goto	l3386
  1462   001E8A  EF4E  F00F         	goto	l3214
  1463   001E8E                     l3386:
  1464                           
  1465                           ; Switch size 1, requested type "simple"
  1466                           ; Number of cases is 1, Range of values is 102 to 102
  1467                           ; switch strategies available:
  1468                           ; Name         Instructions Cycles
  1469                           ; simple_byte            4     3 (average)
  1470                           ;	Chosen strategy is simple_byte
  1471   001E8E  503D               	movf	??_vfpfcnvrt^0,w,c
  1472   001E90  0A66               	xorlw	102	; case 102
  1473   001E92  B4D8               	btfsc	status,2,c
  1474   001E94  EF21  F00F         	goto	l3206
  1475   001E98  EF4E  F00F         	goto	l3214
  1476   001E9C                     l3214:
  1477                           
  1478                           ;C:\Program Files\Microchip\xc8\v2.41\pic\sources\c99\common\doprnt.c: 1535:         ++*
      +                          fmt;
  1479   001E9C  C039  FFD9         	movff	vfpfcnvrt@fmt,fsr2l
  1480   001EA0  C03A  FFDA         	movff	vfpfcnvrt@fmt+1,fsr2h
  1481   001EA4  2ADE               	incf	postinc2,f,c
  1482   001EA6  0E00               	movlw	0
  1483   001EA8  22DD               	addwfc	postdec2,f,c
  1484   001EAA  EF6B  F00F         	goto	l957
  1485   001EAE                     l3218:
  1486                           
  1487                           ;C:\Program Files\Microchip\xc8\v2.41\pic\sources\c99\common\doprnt.c: 1540:     fputc((
      +                          int)(*fmt)[0], fp);
  1488   001EAE  C039  FFD9         	movff	vfpfcnvrt@fmt,fsr2l
  1489   001EB2  C03A  FFDA         	movff	vfpfcnvrt@fmt+1,fsr2h
  1490   001EB6  CFDE FFF6          	movff	postinc2,tblptrl
  1491   001EBA  CFDD FFF7          	movff	postdec2,tblptrh
  1492   001EBE                     	if	0	;tblptru may be non-zero
  1493   001EBE                     	endif
  1494   001EBE                     	if	0	;tblptru may be non-zero
  1495   001EBE                     	endif
  1496   001EBE  0008               	tblrd		*
  1497   001EC0  50F5               	movf	tablat,w,c
  1498   001EC2  6E01               	movwf	fputc@c^0,c
  1499   001EC4  6A02               	clrf	(fputc@c+1)^0,c
  1500   001EC6  C037  F003         	movff	vfpfcnvrt@fp,fputc@fp
  1501   001ECA  C038  F004         	movff	vfpfcnvrt@fp+1,fputc@fp+1
  1502   001ECE  EC82  F012         	call	_fputc	;wreg free
  1503   001ED2  EF4E  F00F         	goto	l3214
  1504   001ED6                     l957:
  1505   001ED6  0012               	return		;funcret
  1506   001ED8                     __end_of_vfpfcnvrt:
  1507                           	callstack 0
  1508                           
  1509 ;; *************** function _read_prec_or_width *****************
  1510 ;; Defined at:
  1511 ;;		line 1029 in file "C:\Program Files\Microchip\xc8\v2.41\pic\sources\c99\common\doprnt.c"
  1512 ;; Parameters:    Size  Location     Type
  1513 ;;  fmt             2    6[COMRAM] PTR PTR const unsigned c
  1514 ;;		 -> vfprintf@cfmt(2), 
  1515 ;;  ap              2    8[COMRAM] PTR PTR void [1]
  1516 ;;		 -> sprintf@ap(2), 
  1517 ;; Auto vars:     Size  Location     Type
  1518 ;;  c               1   12[COMRAM] unsigned char 
  1519 ;;  n               2   13[COMRAM] int 
  1520 ;; Return value:  Size  Location     Type
  1521 ;;                  2    6[COMRAM] int 
  1522 ;; Registers used:
  1523 ;;		wreg, fsr2l, fsr2h, status,2, status,0, tblptrl, tblptrh, tblptru, prodl, prodh, cstack
  1524 ;; Tracked objects:
  1525 ;;		On entry : 0/0
  1526 ;;		On exit  : 0/0
  1527 ;;		Unchanged: 0/0
  1528 ;; Data sizes:     COMRAM   BANK0   BANK1   BANK2   BANK3   BANK4   BANK5
  1529 ;;      Params:         4       0       0       0       0       0       0
  1530 ;;      Locals:         3       0       0       0       0       0       0
  1531 ;;      Temps:          2       0       0       0       0       0       0
  1532 ;;      Totals:         9       0       0       0       0       0       0
  1533 ;;Total ram usage:        9 bytes
  1534 ;; Hardware stack levels used: 1
  1535 ;; Hardware stack levels required when called: 1
  1536 ;; This function calls:
  1537 ;;		___wmul
  1538 ;; This function is called by:
  1539 ;;		_vfpfcnvrt
  1540 ;; This function uses a non-reentrant model
  1541 ;;
  1542                           
  1543                           	psect	text5
  1544   0025CE                     __ptext5:
  1545                           	callstack 0
  1546   0025CE                     _read_prec_or_width:
  1547                           	callstack 26
  1548   0025CE                     
  1549                           ;C:\Program Files\Microchip\xc8\v2.41\pic\sources\c99\common\doprnt.c: 1030:     int n =
      +                           0;
  1550   0025CE  0E00               	movlw	0
  1551   0025D0  6E0F               	movwf	(read_prec_or_width@n+1)^0,c
  1552   0025D2  0E00               	movlw	0
  1553   0025D4  6E0E               	movwf	read_prec_or_width@n^0,c
  1554   0025D6                     
  1555                           ;C:\Program Files\Microchip\xc8\v2.41\pic\sources\c99\common\doprnt.c: 1031:     if ((*f
      +                          mt)[0] == '*') {
  1556   0025D6  C007  FFD9         	movff	read_prec_or_width@fmt,fsr2l
  1557   0025DA  C008  FFDA         	movff	read_prec_or_width@fmt+1,fsr2h
  1558   0025DE  CFDE FFF6          	movff	postinc2,tblptrl
  1559   0025E2  CFDD FFF7          	movff	postdec2,tblptrh
  1560   0025E6                     	if	0	;tblptru may be non-zero
  1561   0025E6                     	endif
  1562   0025E6                     	if	0	;tblptru may be non-zero
  1563   0025E6                     	endif
  1564   0025E6  0008               	tblrd		*
  1565   0025E8  50F5               	movf	tablat,w,c
  1566   0025EA  0A2A               	xorlw	42
  1567   0025EC  A4D8               	btfss	status,2,c
  1568   0025EE  EFFB  F012         	goto	u3311
  1569   0025F2  EFFD  F012         	goto	u3310
  1570   0025F6                     u3311:
  1571   0025F6  EF31  F013         	goto	l3158
  1572   0025FA                     u3310:
  1573   0025FA                     
  1574                           ;C:\Program Files\Microchip\xc8\v2.41\pic\sources\c99\common\doprnt.c: 1032:         ++*
      +                          fmt;
  1575   0025FA  C007  FFD9         	movff	read_prec_or_width@fmt,fsr2l
  1576   0025FE  C008  FFDA         	movff	read_prec_or_width@fmt+1,fsr2h
  1577   002602  2ADE               	incf	postinc2,f,c
  1578   002604  0E00               	movlw	0
  1579   002606  22DD               	addwfc	postdec2,f,c
  1580                           
  1581                           ;C:\Program Files\Microchip\xc8\v2.41\pic\sources\c99\common\doprnt.c: 1033:         n =
      +                           (*(int *)__va_arg(*(int **)*ap, (int)0));
  1582   002608  C009  FFD9         	movff	read_prec_or_width@ap,fsr2l
  1583   00260C  C00A  FFDA         	movff	read_prec_or_width@ap+1,fsr2h
  1584   002610  CFDF F00B          	movff	indf2,??_read_prec_or_width
  1585   002614  0E02               	movlw	2
  1586   002616  26DE               	addwf	postinc2,f,c
  1587   002618  CFDF F00C          	movff	indf2,??_read_prec_or_width+1
  1588   00261C  0E00               	movlw	0
  1589   00261E  22DD               	addwfc	postdec2,f,c
  1590   002620  C00B  FFD9         	movff	??_read_prec_or_width,fsr2l
  1591   002624  C00C  FFDA         	movff	??_read_prec_or_width+1,fsr2h
  1592   002628  CFDE F00E          	movff	postinc2,read_prec_or_width@n
  1593   00262C  CFDD F00F          	movff	postdec2,read_prec_or_width@n+1
  1594                           
  1595                           ;C:\Program Files\Microchip\xc8\v2.41\pic\sources\c99\common\doprnt.c: 1034:     } else 
      +                          {
  1596   002630  EF45  F013         	goto	l933
  1597   002634                     l3154:
  1598                           
  1599                           ;C:\Program Files\Microchip\xc8\v2.41\pic\sources\c99\common\doprnt.c: 1037:            
      +                           n = n * 10 + c;
  1600   002634  C00E  F001         	movff	read_prec_or_width@n,___wmul@multiplier
  1601   002638  C00F  F002         	movff	read_prec_or_width@n+1,___wmul@multiplier+1
  1602   00263C  0E00               	movlw	0
  1603   00263E  6E04               	movwf	(___wmul@multiplicand+1)^0,c
  1604   002640  0E0A               	movlw	10
  1605   002642  6E03               	movwf	___wmul@multiplicand^0,c
  1606   002644  EC88  F015         	call	___wmul	;wreg free
  1607   002648  500D               	movf	read_prec_or_width@c^0,w,c
  1608   00264A  2401               	addwf	?___wmul^0,w,c
  1609   00264C  6E0E               	movwf	read_prec_or_width@n^0,c
  1610   00264E  0E00               	movlw	0
  1611   002650  2002               	addwfc	(?___wmul+1)^0,w,c
  1612   002652  6E0F               	movwf	(read_prec_or_width@n+1)^0,c
  1613   002654                     
  1614                           ;C:\Program Files\Microchip\xc8\v2.41\pic\sources\c99\common\doprnt.c: 1038:            
      +                           ++*fmt;
  1615   002654  C007  FFD9         	movff	read_prec_or_width@fmt,fsr2l
  1616   002658  C008  FFDA         	movff	read_prec_or_width@fmt+1,fsr2h
  1617   00265C  2ADE               	incf	postinc2,f,c
  1618   00265E  0E00               	movlw	0
  1619   002660  22DD               	addwfc	postdec2,f,c
  1620   002662                     l3158:
  1621                           
  1622                           ;C:\Program Files\Microchip\xc8\v2.41\pic\sources\c99\common\doprnt.c: 1036:         whi
      +                          le ((c = ((unsigned)(*fmt)[0]) - '0') < 10) {
  1623   002662  C007  FFD9         	movff	read_prec_or_width@fmt,fsr2l
  1624   002666  C008  FFDA         	movff	read_prec_or_width@fmt+1,fsr2h
  1625   00266A  CFDE FFF6          	movff	postinc2,tblptrl
  1626   00266E  CFDD FFF7          	movff	postdec2,tblptrh
  1627   002672                     	if	0	;tblptru may be non-zero
  1628   002672                     	endif
  1629   002672                     	if	0	;tblptru may be non-zero
  1630   002672                     	endif
  1631   002672  0008               	tblrd		*
  1632   002674  50F5               	movf	tablat,w,c
  1633   002676  0FD0               	addlw	208
  1634   002678  6E0D               	movwf	read_prec_or_width@c^0,c
  1635   00267A  0E09               	movlw	9
  1636   00267C  640D               	cpfsgt	read_prec_or_width@c^0,c
  1637   00267E  EF43  F013         	goto	u3321
  1638   002682  EF45  F013         	goto	u3320
  1639   002686                     u3321:
  1640   002686  EF1A  F013         	goto	l3154
  1641   00268A                     u3320:
  1642   00268A                     l933:
  1643                           
  1644                           ;C:\Program Files\Microchip\xc8\v2.41\pic\sources\c99\common\doprnt.c: 1041:     return 
      +                          n;
  1645   00268A  C00E  F007         	movff	read_prec_or_width@n,?_read_prec_or_width
  1646   00268E  C00F  F008         	movff	read_prec_or_width@n+1,?_read_prec_or_width+1
  1647   002692  0012               	return		;funcret
  1648   002694                     __end_of_read_prec_or_width:
  1649                           	callstack 0
  1650                           
  1651 ;; *************** function ___wmul *****************
  1652 ;; Defined at:
  1653 ;;		line 15 in file "C:\Program Files\Microchip\xc8\v2.41\pic\sources\c99\common\Umul16.c"
  1654 ;; Parameters:    Size  Location     Type
  1655 ;;  multiplier      2    0[COMRAM] unsigned int 
  1656 ;;  multiplicand    2    2[COMRAM] unsigned int 
  1657 ;; Auto vars:     Size  Location     Type
  1658 ;;  product         2    4[COMRAM] unsigned int 
  1659 ;; Return value:  Size  Location     Type
  1660 ;;                  2    0[COMRAM] unsigned int 
  1661 ;; Registers used:
  1662 ;;		wreg, status,2, status,0, prodl, prodh
  1663 ;; Tracked objects:
  1664 ;;		On entry : 0/0
  1665 ;;		On exit  : 0/0
  1666 ;;		Unchanged: 0/0
  1667 ;; Data sizes:     COMRAM   BANK0   BANK1   BANK2   BANK3   BANK4   BANK5
  1668 ;;      Params:         4       0       0       0       0       0       0
  1669 ;;      Locals:         2       0       0       0       0       0       0
  1670 ;;      Temps:          0       0       0       0       0       0       0
  1671 ;;      Totals:         6       0       0       0       0       0       0
  1672 ;;Total ram usage:        6 bytes
  1673 ;; Hardware stack levels used: 1
  1674 ;; This function calls:
  1675 ;;		Nothing
  1676 ;; This function is called by:
  1677 ;;		_read_prec_or_width
  1678 ;; This function uses a non-reentrant model
  1679 ;;
  1680                           
  1681                           	psect	text6
  1682   002B10                     __ptext6:
  1683                           	callstack 0
  1684   002B10                     ___wmul:
  1685                           	callstack 26
  1686   002B10  5001               	movf	___wmul@multiplier^0,w,c
  1687   002B12  0203               	mulwf	___wmul@multiplicand^0,c
  1688   002B14  CFF3 F005          	movff	prodl,___wmul@product
  1689   002B18  CFF4 F006          	movff	prodh,___wmul@product+1
  1690   002B1C  5001               	movf	___wmul@multiplier^0,w,c
  1691   002B1E  0204               	mulwf	(___wmul@multiplicand+1)^0,c
  1692   002B20  50F3               	movf	243,w,c
  1693   002B22  2606               	addwf	(___wmul@product+1)^0,f,c
  1694   002B24  5002               	movf	(___wmul@multiplier+1)^0,w,c
  1695   002B26  0203               	mulwf	___wmul@multiplicand^0,c
  1696   002B28  50F3               	movf	243,w,c
  1697   002B2A  2606               	addwf	(___wmul@product+1)^0,f,c
  1698   002B2C  C005  F001         	movff	___wmul@product,?___wmul
  1699   002B30  C006  F002         	movff	___wmul@product+1,?___wmul+1
  1700   002B34  0012               	return		;funcret
  1701   002B36                     __end_of___wmul:
  1702                           	callstack 0
  1703                           
  1704 ;; *************** function _efgtoa *****************
  1705 ;; Defined at:
  1706 ;;		line 531 in file "C:\Program Files\Microchip\xc8\v2.41\pic\sources\c99\common\doprnt.c"
  1707 ;; Parameters:    Size  Location     Type
  1708 ;;  fp              2   45[COMRAM] PTR struct _IO_FILE
  1709 ;;		 -> sprintf@f(12), 
  1710 ;;  f               4   47[COMRAM] PTR struct _IO_FILE
  1711 ;;  c               1   51[COMRAM] unsigned char 
  1712 ;; Auto vars:     Size  Location     Type
  1713 ;;  u               4   40[BANK0 ] struct flui
  1714 ;;  g               4   36[BANK0 ] struct flui
  1715 ;;  l               4   29[BANK0 ] struct flui
  1716 ;;  h               4   25[BANK0 ] struct flui
  1717 ;;  ou              4   19[BANK0 ] struct flui
  1718 ;;  n               2   34[BANK0 ] int 
  1719 ;;  i               2   23[BANK0 ] int 
  1720 ;;  w               2   17[BANK0 ] int 
  1721 ;;  e               2   15[BANK0 ] int 
  1722 ;;  m               2   13[BANK0 ] int 
  1723 ;;  d               2   11[BANK0 ] int 
  1724 ;;  t               2    4[BANK0 ] int 
  1725 ;;  p               2    2[BANK0 ] int 
  1726 ;;  ne              2    0[BANK0 ] int 
  1727 ;;  sign            1   33[BANK0 ] unsigned char 
  1728 ;;  nmode           1   10[BANK0 ] unsigned char 
  1729 ;;  mode            1    9[BANK0 ] unsigned char 
  1730 ;;  pp              1    8[BANK0 ] unsigned char 
  1731 ;;  esign           1    0        unsigned char 
  1732 ;; Return value:  Size  Location     Type
  1733 ;;                  1    wreg      void 
  1734 ;; Registers used:
  1735 ;;		wreg, fsr1l, fsr1h, fsr2l, fsr2h, status,2, status,0, tblptrl, tblptrh, tblptru, prodl, prodh, cstack
  1736 ;; Tracked objects:
  1737 ;;		On entry : 0/0
  1738 ;;		On exit  : 0/0
  1739 ;;		Unchanged: 0/0
  1740 ;; Data sizes:     COMRAM   BANK0   BANK1   BANK2   BANK3   BANK4   BANK5
  1741 ;;      Params:         7       0       0       0       0       0       0
  1742 ;;      Locals:         0      44       0       0       0       0       0
  1743 ;;      Temps:          2       0       0       0       0       0       0
  1744 ;;      Totals:         9      44       0       0       0       0       0
  1745 ;;Total ram usage:       53 bytes
  1746 ;; Hardware stack levels used: 1
  1747 ;; Hardware stack levels required when called: 4
  1748 ;; This function calls:
  1749 ;;		___fladd
  1750 ;;		___fldiv
  1751 ;;		___fleq
  1752 ;;		___flge
  1753 ;;		___flmul
  1754 ;;		___flneg
  1755 ;;		___flsub
  1756 ;;		___fltol
  1757 ;;		___fpclassifyf
  1758 ;;		_floorf
  1759 ;;		_labs
  1760 ;;		_memcpy
  1761 ;;		_pad
  1762 ;;		_strcpy
  1763 ;; This function is called by:
  1764 ;;		_vfpfcnvrt
  1765 ;; This function uses a non-reentrant model
  1766 ;;
  1767                           
  1768                           	psect	text7
  1769   000610                     __ptext7:
  1770                           	callstack 0
  1771   000610                     _efgtoa:
  1772                           	callstack 23
  1773   000610                     
  1774                           ;C:\Program Files\Microchip\xc8\v2.41\pic\sources\c99\common\doprnt.c: 531: static void 
      +                          efgtoa(FILE *fp, long double f, char c);C:\Program Files\Microchip\xc8\v2.41\pic\sources
      +                          \c99\common\doprnt.c: 532: {;C:\Program Files\Microchip\xc8\v2.41\pic\sources\c99\common
      +                          \doprnt.c: 533:     char mode, nmode, pp, sign, esign;;C:\Program Files\Microchip\xc8\v2
      +                          .41\pic\sources\c99\common\doprnt.c: 534:     int d, e, i, m, n, ne, p, t, w;;C:\Program
      +                           Files\Microchip\xc8\v2.41\pic\sources\c99\common\doprnt.c: 535:     long double h, l;
  1775   000610  0E00               	movlw	0
  1776   000612  0100               	movlb	0	; () banked
  1777   000614  6F81               	movwf	efgtoa@sign& (0+255),b
  1778   000616                     
  1779                           ; BSR set to: 0
  1780                           ;C:\Program Files\Microchip\xc8\v2.41\pic\sources\c99\common\doprnt.c: 540:     g.f = f;
  1781   000616  C030  F084         	movff	efgtoa@f,efgtoa@g
  1782   00061A  C031  F085         	movff	efgtoa@f+1,efgtoa@g+1
  1783   00061E  C032  F086         	movff	efgtoa@f+2,efgtoa@g+2
  1784   000622  C033  F087         	movff	efgtoa@f+3,efgtoa@g+3
  1785   000626                     
  1786                           ; BSR set to: 0
  1787                           ;C:\Program Files\Microchip\xc8\v2.41\pic\sources\c99\common\doprnt.c: 541:     if (g.f 
      +                          < 0.0) {
  1788   000626  BF87               	btfsc	(efgtoa@g+3)& (0+255),7,b
  1789   000628  EF1A  F003         	goto	u2990
  1790   00062C  EF18  F003         	goto	u2991
  1791   000630                     u2991:
  1792   000630  EF2E  F003         	goto	l2936
  1793   000634                     u2990:
  1794   000634                     
  1795                           ; BSR set to: 0
  1796                           ;C:\Program Files\Microchip\xc8\v2.41\pic\sources\c99\common\doprnt.c: 542:         sign
      +                           = 1;
  1797   000634  0E01               	movlw	1
  1798   000636  6F81               	movwf	efgtoa@sign& (0+255),b
  1799   000638                     
  1800                           ; BSR set to: 0
  1801                           ;C:\Program Files\Microchip\xc8\v2.41\pic\sources\c99\common\doprnt.c: 543:         g.f 
      +                          = -g.f;
  1802   000638  C084  F001         	movff	efgtoa@g,___flneg@f1
  1803   00063C  C085  F002         	movff	efgtoa@g+1,___flneg@f1+1
  1804   000640  C086  F003         	movff	efgtoa@g+2,___flneg@f1+2
  1805   000644  C087  F004         	movff	efgtoa@g+3,___flneg@f1+3
  1806   000648  EC23  F015         	call	___flneg	;wreg free
  1807   00064C  C001  F084         	movff	?___flneg,efgtoa@g
  1808   000650  C002  F085         	movff	?___flneg+1,efgtoa@g+1
  1809   000654  C003  F086         	movff	?___flneg+2,efgtoa@g+2
  1810   000658  C004  F087         	movff	?___flneg+3,efgtoa@g+3
  1811   00065C                     l2936:
  1812                           
  1813                           ;C:\Program Files\Microchip\xc8\v2.41\pic\sources\c99\common\doprnt.c: 547:     n = 0;
  1814   00065C  0E00               	movlw	0
  1815   00065E  0100               	movlb	0	; () banked
  1816   000660  6F83               	movwf	(efgtoa@n+1)& (0+255),b
  1817   000662  0E00               	movlw	0
  1818   000664  6F82               	movwf	efgtoa@n& (0+255),b
  1819   000666                     
  1820                           ; BSR set to: 0
  1821                           ;C:\Program Files\Microchip\xc8\v2.41\pic\sources\c99\common\doprnt.c: 548:     w = widt
      +                          h;
  1822   000666  C05A  F071         	movff	_width,efgtoa@w
  1823   00066A  C05B  F072         	movff	_width+1,efgtoa@w+1
  1824   00066E                     
  1825                           ; BSR set to: 0
  1826                           ;C:\Program Files\Microchip\xc8\v2.41\pic\sources\c99\common\doprnt.c: 549:     if (sign
  1827   00066E  5181               	movf	efgtoa@sign& (0+255),w,b
  1828   000670  B4D8               	btfsc	status,2,c
  1829   000672  EF3D  F003         	goto	u3001
  1830   000676  EF3F  F003         	goto	u3000
  1831   00067A                     u3001:
  1832   00067A  EF53  F003         	goto	l2950
  1833   00067E                     u3000:
  1834   00067E                     
  1835                           ; BSR set to: 0
  1836                           ;C:\Program Files\Microchip\xc8\v2.41\pic\sources\c99\common\doprnt.c: 553:    ) {;C:\Pr
      +                          ogram Files\Microchip\xc8\v2.41\pic\sources\c99\common\doprnt.c: 554:   sign = sign ? '-
      +                          ' : '+';
  1837   00067E  5181               	movf	efgtoa@sign& (0+255),w,b
  1838   000680  A4D8               	btfss	status,2,c
  1839   000682  EF45  F003         	goto	u3011
  1840   000686  EF47  F003         	goto	u3010
  1841   00068A                     u3011:
  1842   00068A  EF4D  F003         	goto	l2946
  1843   00068E                     u3010:
  1844   00068E                     
  1845                           ; BSR set to: 0
  1846   00068E  0E00               	movlw	0
  1847   000690  6F67               	movwf	(_efgtoa$982+1)& (0+255),b
  1848   000692  0E2B               	movlw	43
  1849   000694  6F66               	movwf	_efgtoa$982& (0+255),b
  1850   000696  EF51  F003         	goto	l2948
  1851   00069A                     l2946:
  1852                           
  1853                           ; BSR set to: 0
  1854   00069A  0E00               	movlw	0
  1855   00069C  6F67               	movwf	(_efgtoa$982+1)& (0+255),b
  1856   00069E  0E2D               	movlw	45
  1857   0006A0  6F66               	movwf	_efgtoa$982& (0+255),b
  1858   0006A2                     l2948:
  1859                           
  1860                           ; BSR set to: 0
  1861   0006A2  C066  F081         	movff	_efgtoa$982,efgtoa@sign
  1862   0006A6                     l2950:
  1863                           
  1864                           ; BSR set to: 0
  1865                           ;C:\Program Files\Microchip\xc8\v2.41\pic\sources\c99\common\doprnt.c: 563:     if (( __
      +                          fpclassifyf(g.f) == 1 )) {
  1866   0006A6  C084  F001         	movff	efgtoa@g,___fpclassifyf@x
  1867   0006AA  C085  F002         	movff	efgtoa@g+1,___fpclassifyf@x+1
  1868   0006AE  C086  F003         	movff	efgtoa@g+2,___fpclassifyf@x+2
  1869   0006B2  C087  F004         	movff	efgtoa@g+3,___fpclassifyf@x+3
  1870   0006B6  EC03  F012         	call	___fpclassifyf	;wreg free
  1871   0006BA  0401               	decf	?___fpclassifyf^0,w,c
  1872   0006BC  1002               	iorwf	(?___fpclassifyf+1)^0,w,c
  1873   0006BE  A4D8               	btfss	status,2,c
  1874   0006C0  EF64  F003         	goto	u3021
  1875   0006C4  EF66  F003         	goto	u3020
  1876   0006C8                     u3021:
  1877   0006C8  EF99  F003         	goto	l2968
  1878   0006CC                     u3020:
  1879   0006CC                     
  1880                           ;C:\Program Files\Microchip\xc8\v2.41\pic\sources\c99\common\doprnt.c: 564:   if (sign) 
      +                          {
  1881   0006CC  0100               	movlb	0	; () banked
  1882   0006CE  5181               	movf	efgtoa@sign& (0+255),w,b
  1883   0006D0  B4D8               	btfsc	status,2,c
  1884   0006D2  EF6D  F003         	goto	u3031
  1885   0006D6  EF6F  F003         	goto	u3030
  1886   0006DA                     u3031:
  1887   0006DA  EF78  F003         	goto	l2960
  1888   0006DE                     u3030:
  1889   0006DE                     
  1890                           ; BSR set to: 0
  1891                           ;C:\Program Files\Microchip\xc8\v2.41\pic\sources\c99\common\doprnt.c: 565:    dbuf[0] =
      +                           sign;
  1892   0006DE  C081  F100         	movff	efgtoa@sign,_dbuf
  1893   0006E2                     
  1894                           ; BSR set to: 0
  1895                           ;C:\Program Files\Microchip\xc8\v2.41\pic\sources\c99\common\doprnt.c: 566:    w--;
  1896   0006E2  0771               	decf	efgtoa@w& (0+255),f,b
  1897   0006E4  A0D8               	btfss	status,0,c
  1898   0006E6  0772               	decf	(efgtoa@w+1)& (0+255),f,b
  1899   0006E8                     
  1900                           ; BSR set to: 0
  1901                           ;C:\Program Files\Microchip\xc8\v2.41\pic\sources\c99\common\doprnt.c: 567:    n = 1;
  1902   0006E8  0E00               	movlw	0
  1903   0006EA  6F83               	movwf	(efgtoa@n+1)& (0+255),b
  1904   0006EC  0E01               	movlw	1
  1905   0006EE  6F82               	movwf	efgtoa@n& (0+255),b
  1906   0006F0                     l2960:
  1907                           
  1908                           ; BSR set to: 0
  1909                           ;C:\Program Files\Microchip\xc8\v2.41\pic\sources\c99\common\doprnt.c: 575:   {;C:\Progr
      +                          am Files\Microchip\xc8\v2.41\pic\sources\c99\common\doprnt.c: 576:             strcpy(&d
      +                          buf[n], "inf");
  1910   0006F0  0E00               	movlw	low _dbuf
  1911   0006F2  2582               	addwf	efgtoa@n& (0+255),w,b
  1912   0006F4  6E01               	movwf	strcpy@dest^0,c
  1913   0006F6  0E01               	movlw	high _dbuf
  1914   0006F8  2183               	addwfc	(efgtoa@n+1)& (0+255),w,b
  1915   0006FA  6E02               	movwf	(strcpy@dest+1)^0,c
  1916   0006FC  0E06               	movlw	low STR_2
  1917   0006FE  6E03               	movwf	strcpy@src^0,c
  1918   000700  0E06               	movlw	high STR_2
  1919   000702  6E04               	movwf	(strcpy@src+1)^0,c
  1920   000704  ECE4  F014         	call	_strcpy	;wreg free
  1921   000708                     l2962:
  1922                           
  1923                           ;C:\Program Files\Microchip\xc8\v2.41\pic\sources\c99\common\doprnt.c: 577:         };C:
      +                          \Program Files\Microchip\xc8\v2.41\pic\sources\c99\common\doprnt.c: 578:         w -= ((
      +                          sizeof("inf")/sizeof("inf"[0]))-1);
  1924   000708  0100               	movlb	0	; () banked
  1925   00070A  0EFD               	movlw	253
  1926   00070C  2771               	addwf	efgtoa@w& (0+255),f,b
  1927   00070E  0EFF               	movlw	255
  1928   000710  2372               	addwfc	(efgtoa@w+1)& (0+255),f,b
  1929   000712                     
  1930                           ; BSR set to: 0
  1931                           ;C:\Program Files\Microchip\xc8\v2.41\pic\sources\c99\common\doprnt.c: 579:         retu
      +                          rn (void) pad(fp, &dbuf[0], w);
  1932   000712  C02E  F011         	movff	efgtoa@fp,pad@fp
  1933   000716  C02F  F012         	movff	efgtoa@fp+1,pad@fp+1
  1934   00071A  0E00               	movlw	low _dbuf
  1935   00071C  6E13               	movwf	pad@buf^0,c
  1936   00071E  0E01               	movlw	high _dbuf
  1937   000720  6E14               	movwf	(pad@buf+1)^0,c
  1938   000722  C071  F015         	movff	efgtoa@w,pad@p
  1939   000726  C072  F016         	movff	efgtoa@w+1,pad@p+1
  1940   00072A  EC4A  F013         	call	_pad	;wreg free
  1941   00072E  EF04  F008         	goto	l888
  1942   000732                     l2968:
  1943                           
  1944                           ;C:\Program Files\Microchip\xc8\v2.41\pic\sources\c99\common\doprnt.c: 581:     if (( __
      +                          fpclassifyf(g.f) == 0 )) {
  1945   000732  C084  F001         	movff	efgtoa@g,___fpclassifyf@x
  1946   000736  C085  F002         	movff	efgtoa@g+1,___fpclassifyf@x+1
  1947   00073A  C086  F003         	movff	efgtoa@g+2,___fpclassifyf@x+2
  1948   00073E  C087  F004         	movff	efgtoa@g+3,___fpclassifyf@x+3
  1949   000742  EC03  F012         	call	___fpclassifyf	;wreg free
  1950   000746  5001               	movf	?___fpclassifyf^0,w,c
  1951   000748  1002               	iorwf	(?___fpclassifyf+1)^0,w,c
  1952   00074A  A4D8               	btfss	status,2,c
  1953   00074C  EFAA  F003         	goto	u3041
  1954   000750  EFAC  F003         	goto	u3040
  1955   000754                     u3041:
  1956   000754  EFCC  F003         	goto	l2986
  1957   000758                     u3040:
  1958   000758                     
  1959                           ;C:\Program Files\Microchip\xc8\v2.41\pic\sources\c99\common\doprnt.c: 582:   if (sign) 
      +                          {
  1960   000758  0100               	movlb	0	; () banked
  1961   00075A  5181               	movf	efgtoa@sign& (0+255),w,b
  1962   00075C  B4D8               	btfsc	status,2,c
  1963   00075E  EFB3  F003         	goto	u3051
  1964   000762  EFB5  F003         	goto	u3050
  1965   000766                     u3051:
  1966   000766  EFBE  F003         	goto	l2978
  1967   00076A                     u3050:
  1968   00076A                     
  1969                           ; BSR set to: 0
  1970                           ;C:\Program Files\Microchip\xc8\v2.41\pic\sources\c99\common\doprnt.c: 583:    dbuf[0] =
      +                           sign;
  1971   00076A  C081  F100         	movff	efgtoa@sign,_dbuf
  1972   00076E                     
  1973                           ; BSR set to: 0
  1974                           ;C:\Program Files\Microchip\xc8\v2.41\pic\sources\c99\common\doprnt.c: 584:    w--;
  1975   00076E  0771               	decf	efgtoa@w& (0+255),f,b
  1976   000770  A0D8               	btfss	status,0,c
  1977   000772  0772               	decf	(efgtoa@w+1)& (0+255),f,b
  1978   000774                     
  1979                           ; BSR set to: 0
  1980                           ;C:\Program Files\Microchip\xc8\v2.41\pic\sources\c99\common\doprnt.c: 585:    n = 1;
  1981   000774  0E00               	movlw	0
  1982   000776  6F83               	movwf	(efgtoa@n+1)& (0+255),b
  1983   000778  0E01               	movlw	1
  1984   00077A  6F82               	movwf	efgtoa@n& (0+255),b
  1985   00077C                     l2978:
  1986                           
  1987                           ; BSR set to: 0
  1988                           ;C:\Program Files\Microchip\xc8\v2.41\pic\sources\c99\common\doprnt.c: 593:   {;C:\Progr
      +                          am Files\Microchip\xc8\v2.41\pic\sources\c99\common\doprnt.c: 594:             strcpy(&d
      +                          buf[n], "nan");
  1989   00077C  0E00               	movlw	low _dbuf
  1990   00077E  2582               	addwf	efgtoa@n& (0+255),w,b
  1991   000780  6E01               	movwf	strcpy@dest^0,c
  1992   000782  0E01               	movlw	high _dbuf
  1993   000784  2183               	addwfc	(efgtoa@n+1)& (0+255),w,b
  1994   000786  6E02               	movwf	(strcpy@dest+1)^0,c
  1995   000788  0E0A               	movlw	low STR_5
  1996   00078A  6E03               	movwf	strcpy@src^0,c
  1997   00078C  0E06               	movlw	high STR_5
  1998   00078E  6E04               	movwf	(strcpy@src+1)^0,c
  1999   000790  ECE4  F014         	call	_strcpy	;wreg free
  2000   000794  EF84  F003         	goto	l2962
  2001   000798                     l2986:
  2002                           
  2003                           ;C:\Program Files\Microchip\xc8\v2.41\pic\sources\c99\common\doprnt.c: 601:     u.f = 1.
      +                          0;
  2004   000798  0E00               	movlw	0
  2005   00079A  0100               	movlb	0	; () banked
  2006   00079C  6F88               	movwf	efgtoa@u& (0+255),b
  2007   00079E  0E00               	movlw	0
  2008   0007A0  6F89               	movwf	(efgtoa@u+1)& (0+255),b
  2009   0007A2  0E80               	movlw	128
  2010   0007A4  6F8A               	movwf	(efgtoa@u+2)& (0+255),b
  2011   0007A6  0E3F               	movlw	63
  2012   0007A8  6F8B               	movwf	(efgtoa@u+3)& (0+255),b
  2013                           
  2014                           ;C:\Program Files\Microchip\xc8\v2.41\pic\sources\c99\common\doprnt.c: 602:     e = 0;
  2015   0007AA  0E00               	movlw	0
  2016   0007AC  6F70               	movwf	(efgtoa@e+1)& (0+255),b
  2017   0007AE  0E00               	movlw	0
  2018   0007B0  6F6F               	movwf	efgtoa@e& (0+255),b
  2019   0007B2                     
  2020                           ; BSR set to: 0
  2021                           ;C:\Program Files\Microchip\xc8\v2.41\pic\sources\c99\common\doprnt.c: 603:  if (!(g.f =
      +                          = 0.0)) {
  2022   0007B2  C084  F001         	movff	efgtoa@g,___fleq@ff1
  2023   0007B6  C085  F002         	movff	efgtoa@g+1,___fleq@ff1+1
  2024   0007BA  C086  F003         	movff	efgtoa@g+2,___fleq@ff1+2
  2025   0007BE  C087  F004         	movff	efgtoa@g+3,___fleq@ff1+3
  2026   0007C2  0E00               	movlw	0
  2027   0007C4  6E05               	movwf	___fleq@ff2^0,c
  2028   0007C6  0E00               	movlw	0
  2029   0007C8  6E06               	movwf	(___fleq@ff2+1)^0,c
  2030   0007CA  0E00               	movlw	0
  2031   0007CC  6E07               	movwf	(___fleq@ff2+2)^0,c
  2032   0007CE  0E00               	movlw	0
  2033   0007D0  6E08               	movwf	(___fleq@ff2+3)^0,c
  2034   0007D2  EC9F  F013         	call	___fleq	;wreg free
  2035   0007D6  B0D8               	btfsc	status,0,c
  2036   0007D8  EFF0  F003         	goto	u3061
  2037   0007DC  EFF2  F003         	goto	u3060
  2038   0007E0                     u3061:
  2039   0007E0  EFD1  F004         	goto	l891
  2040   0007E4                     u3060:
  2041   0007E4  EFFF  F003         	goto	l2994
  2042   0007E8                     l893:
  2043                           
  2044                           ;C:\Program Files\Microchip\xc8\v2.41\pic\sources\c99\common\doprnt.c: 605:    u = ou;
  2045   0007E8  C073  F088         	movff	efgtoa@ou,efgtoa@u
  2046   0007EC  C074  F089         	movff	efgtoa@ou+1,efgtoa@u+1
  2047   0007F0  C075  F08A         	movff	efgtoa@ou+2,efgtoa@u+2
  2048   0007F4  C076  F08B         	movff	efgtoa@ou+3,efgtoa@u+3
  2049   0007F8                     
  2050                           ;C:\Program Files\Microchip\xc8\v2.41\pic\sources\c99\common\doprnt.c: 606:    ++e;
  2051   0007F8  0100               	movlb	0	; () banked
  2052   0007FA  4B6F               	infsnz	efgtoa@e& (0+255),f,b
  2053   0007FC  2B70               	incf	(efgtoa@e+1)& (0+255),f,b
  2054   0007FE                     l2994:
  2055                           
  2056                           ;C:\Program Files\Microchip\xc8\v2.41\pic\sources\c99\common\doprnt.c: 604:   while ((la
      +                          bs((g).u-((ou.f = u.f*10.0,ou)).u) <= 1) || g.f > ou.f) {
  2057   0007FE  C088  F001         	movff	efgtoa@u,___flmul@b
  2058   000802  C089  F002         	movff	efgtoa@u+1,___flmul@b+1
  2059   000806  C08A  F003         	movff	efgtoa@u+2,___flmul@b+2
  2060   00080A  C08B  F004         	movff	efgtoa@u+3,___flmul@b+3
  2061   00080E  0E00               	movlw	0
  2062   000810  6E05               	movwf	___flmul@a^0,c
  2063   000812  0E00               	movlw	0
  2064   000814  6E06               	movwf	(___flmul@a+1)^0,c
  2065   000816  0E20               	movlw	32
  2066   000818  6E07               	movwf	(___flmul@a+2)^0,c
  2067   00081A  0E41               	movlw	65
  2068   00081C  6E08               	movwf	(___flmul@a+3)^0,c
  2069   00081E  EC65  F00A         	call	___flmul	;wreg free
  2070   000822  C001  F073         	movff	?___flmul,efgtoa@ou
  2071   000826  C002  F074         	movff	?___flmul+1,efgtoa@ou+1
  2072   00082A  C003  F075         	movff	?___flmul+2,efgtoa@ou+2
  2073   00082E  C004  F076         	movff	?___flmul+3,efgtoa@ou+3
  2074   000832  0100               	movlb	0	; () banked
  2075   000834  5173               	movf	efgtoa@ou& (0+255),w,b
  2076   000836  5D84               	subwf	efgtoa@g& (0+255),w,b
  2077   000838  6E01               	movwf	labs@a^0,c
  2078   00083A  5174               	movf	(efgtoa@ou+1)& (0+255),w,b
  2079   00083C  5985               	subwfb	(efgtoa@g+1)& (0+255),w,b
  2080   00083E  6E02               	movwf	(labs@a+1)^0,c
  2081   000840  5175               	movf	(efgtoa@ou+2)& (0+255),w,b
  2082   000842  5986               	subwfb	(efgtoa@g+2)& (0+255),w,b
  2083   000844  6E03               	movwf	(labs@a+2)^0,c
  2084   000846  5176               	movf	(efgtoa@ou+3)& (0+255),w,b
  2085   000848  5987               	subwfb	(efgtoa@g+3)& (0+255),w,b
  2086   00084A  6E04               	movwf	(labs@a+3)^0,c
  2087   00084C  ECF4  F013         	call	_labs	;wreg free
  2088   000850  BE04               	btfsc	(?_labs+3)^0,7,c
  2089   000852  EF36  F004         	goto	u3071
  2090   000856  5004               	movf	(?_labs+3)^0,w,c
  2091   000858  1003               	iorwf	(?_labs+2)^0,w,c
  2092   00085A  1002               	iorwf	(?_labs+1)^0,w,c
  2093   00085C  E109               	bnz	u3070
  2094   00085E  0E02               	movlw	2
  2095   000860  5C01               	subwf	?_labs^0,w,c
  2096   000862  A0D8               	btfss	status,0,c
  2097   000864  EF36  F004         	goto	u3071
  2098   000868  EF38  F004         	goto	u3070
  2099   00086C                     u3071:
  2100   00086C  EFF4  F003         	goto	l893
  2101   000870                     u3070:
  2102   000870  C073  F01A         	movff	efgtoa@ou,___flge@ff1
  2103   000874  C074  F01B         	movff	efgtoa@ou+1,___flge@ff1+1
  2104   000878  C075  F01C         	movff	efgtoa@ou+2,___flge@ff1+2
  2105   00087C  C076  F01D         	movff	efgtoa@ou+3,___flge@ff1+3
  2106   000880  C084  F01E         	movff	efgtoa@g,___flge@ff2
  2107   000884  C085  F01F         	movff	efgtoa@g+1,___flge@ff2+1
  2108   000888  C086  F020         	movff	efgtoa@g+2,___flge@ff2+2
  2109   00088C  C087  F021         	movff	efgtoa@g+3,___flge@ff2+3
  2110   000890  EC81  F011         	call	___flge	;wreg free
  2111   000894  A0D8               	btfss	status,0,c
  2112   000896  EF4F  F004         	goto	u3081
  2113   00089A  EF51  F004         	goto	u3080
  2114   00089E                     u3081:
  2115   00089E  EFF4  F003         	goto	l893
  2116   0008A2                     u3080:
  2117   0008A2                     
  2118                           ;C:\Program Files\Microchip\xc8\v2.41\pic\sources\c99\common\doprnt.c: 608:   if ((labs(
      +                          (g).u-(u).u) <= 1)) {
  2119   0008A2  0100               	movlb	0	; () banked
  2120   0008A4  5188               	movf	efgtoa@u& (0+255),w,b
  2121   0008A6  5D84               	subwf	efgtoa@g& (0+255),w,b
  2122   0008A8  6E01               	movwf	labs@a^0,c
  2123   0008AA  5189               	movf	(efgtoa@u+1)& (0+255),w,b
  2124   0008AC  5985               	subwfb	(efgtoa@g+1)& (0+255),w,b
  2125   0008AE  6E02               	movwf	(labs@a+1)^0,c
  2126   0008B0  518A               	movf	(efgtoa@u+2)& (0+255),w,b
  2127   0008B2  5986               	subwfb	(efgtoa@g+2)& (0+255),w,b
  2128   0008B4  6E03               	movwf	(labs@a+2)^0,c
  2129   0008B6  518B               	movf	(efgtoa@u+3)& (0+255),w,b
  2130   0008B8  5987               	subwfb	(efgtoa@g+3)& (0+255),w,b
  2131   0008BA  6E04               	movwf	(labs@a+3)^0,c
  2132   0008BC  ECF4  F013         	call	_labs	;wreg free
  2133   0008C0  BE04               	btfsc	(?_labs+3)^0,7,c
  2134   0008C2  EF70  F004         	goto	u3090
  2135   0008C6  5004               	movf	(?_labs+3)^0,w,c
  2136   0008C8  1003               	iorwf	(?_labs+2)^0,w,c
  2137   0008CA  1002               	iorwf	(?_labs+1)^0,w,c
  2138   0008CC  E107               	bnz	u3091
  2139   0008CE  0E02               	movlw	2
  2140   0008D0  5C01               	subwf	?_labs^0,w,c
  2141   0008D2  B0D8               	btfsc	status,0,c
  2142   0008D4  EF6E  F004         	goto	u3091
  2143   0008D8  EF70  F004         	goto	u3090
  2144   0008DC                     u3091:
  2145   0008DC  EFB8  F004         	goto	l3012
  2146   0008E0                     u3090:
  2147   0008E0                     l3002:
  2148                           
  2149                           ;C:\Program Files\Microchip\xc8\v2.41\pic\sources\c99\common\doprnt.c: 609:    g = u;
  2150   0008E0  C088  F084         	movff	efgtoa@u,efgtoa@g
  2151   0008E4  C089  F085         	movff	efgtoa@u+1,efgtoa@g+1
  2152   0008E8  C08A  F086         	movff	efgtoa@u+2,efgtoa@g+2
  2153   0008EC  C08B  F087         	movff	efgtoa@u+3,efgtoa@g+3
  2154                           
  2155                           ;C:\Program Files\Microchip\xc8\v2.41\pic\sources\c99\common\doprnt.c: 610:   }
  2156   0008F0  EFD1  F004         	goto	l891
  2157   0008F4                     l3004:
  2158                           
  2159                           ;C:\Program Files\Microchip\xc8\v2.41\pic\sources\c99\common\doprnt.c: 613:     u.f = u.
      +                          f/10.0;
  2160   0008F4  C088  F001         	movff	efgtoa@u,___fldiv@b
  2161   0008F8  C089  F002         	movff	efgtoa@u+1,___fldiv@b+1
  2162   0008FC  C08A  F003         	movff	efgtoa@u+2,___fldiv@b+2
  2163   000900  C08B  F004         	movff	efgtoa@u+3,___fldiv@b+3
  2164   000904  0E00               	movlw	0
  2165   000906  6E05               	movwf	___fldiv@a^0,c
  2166   000908  0E00               	movlw	0
  2167   00090A  6E06               	movwf	(___fldiv@a+1)^0,c
  2168   00090C  0E20               	movlw	32
  2169   00090E  6E07               	movwf	(___fldiv@a+2)^0,c
  2170   000910  0E41               	movlw	65
  2171   000912  6E08               	movwf	(___fldiv@a+3)^0,c
  2172   000914  EC7A  F00C         	call	___fldiv	;wreg free
  2173   000918  C001  F088         	movff	?___fldiv,efgtoa@u
  2174   00091C  C002  F089         	movff	?___fldiv+1,efgtoa@u+1
  2175   000920  C003  F08A         	movff	?___fldiv+2,efgtoa@u+2
  2176   000924  C004  F08B         	movff	?___fldiv+3,efgtoa@u+3
  2177   000928                     
  2178                           ;C:\Program Files\Microchip\xc8\v2.41\pic\sources\c99\common\doprnt.c: 614:     --e;
  2179   000928  0100               	movlb	0	; () banked
  2180   00092A  076F               	decf	efgtoa@e& (0+255),f,b
  2181   00092C  A0D8               	btfss	status,0,c
  2182   00092E  0770               	decf	(efgtoa@e+1)& (0+255),f,b
  2183   000930                     
  2184                           ; BSR set to: 0
  2185                           ;C:\Program Files\Microchip\xc8\v2.41\pic\sources\c99\common\doprnt.c: 615:     if ((lab
      +                          s((g).u-(u).u) <= 1)) {
  2186   000930  5188               	movf	efgtoa@u& (0+255),w,b
  2187   000932  5D84               	subwf	efgtoa@g& (0+255),w,b
  2188   000934  6E01               	movwf	labs@a^0,c
  2189   000936  5189               	movf	(efgtoa@u+1)& (0+255),w,b
  2190   000938  5985               	subwfb	(efgtoa@g+1)& (0+255),w,b
  2191   00093A  6E02               	movwf	(labs@a+1)^0,c
  2192   00093C  518A               	movf	(efgtoa@u+2)& (0+255),w,b
  2193   00093E  5986               	subwfb	(efgtoa@g+2)& (0+255),w,b
  2194   000940  6E03               	movwf	(labs@a+2)^0,c
  2195   000942  518B               	movf	(efgtoa@u+3)& (0+255),w,b
  2196   000944  5987               	subwfb	(efgtoa@g+3)& (0+255),w,b
  2197   000946  6E04               	movwf	(labs@a+3)^0,c
  2198   000948  ECF4  F013         	call	_labs	;wreg free
  2199   00094C  BE04               	btfsc	(?_labs+3)^0,7,c
  2200   00094E  EFB6  F004         	goto	u3100
  2201   000952  5004               	movf	(?_labs+3)^0,w,c
  2202   000954  1003               	iorwf	(?_labs+2)^0,w,c
  2203   000956  1002               	iorwf	(?_labs+1)^0,w,c
  2204   000958  E107               	bnz	u3101
  2205   00095A  0E02               	movlw	2
  2206   00095C  5C01               	subwf	?_labs^0,w,c
  2207   00095E  B0D8               	btfsc	status,0,c
  2208   000960  EFB4  F004         	goto	u3101
  2209   000964  EFB6  F004         	goto	u3100
  2210   000968                     u3101:
  2211   000968  EFB8  F004         	goto	l3012
  2212   00096C                     u3100:
  2213   00096C  EF70  F004         	goto	l3002
  2214   000970                     l3012:
  2215                           
  2216                           ;C:\Program Files\Microchip\xc8\v2.41\pic\sources\c99\common\doprnt.c: 612:    while (g.
      +                          f < u.f) {
  2217   000970  C084  F01A         	movff	efgtoa@g,___flge@ff1
  2218   000974  C085  F01B         	movff	efgtoa@g+1,___flge@ff1+1
  2219   000978  C086  F01C         	movff	efgtoa@g+2,___flge@ff1+2
  2220   00097C  C087  F01D         	movff	efgtoa@g+3,___flge@ff1+3
  2221   000980  C088  F01E         	movff	efgtoa@u,___flge@ff2
  2222   000984  C089  F01F         	movff	efgtoa@u+1,___flge@ff2+1
  2223   000988  C08A  F020         	movff	efgtoa@u+2,___flge@ff2+2
  2224   00098C  C08B  F021         	movff	efgtoa@u+3,___flge@ff2+3
  2225   000990  EC81  F011         	call	___flge	;wreg free
  2226   000994  A0D8               	btfss	status,0,c
  2227   000996  EFCF  F004         	goto	u3111
  2228   00099A  EFD1  F004         	goto	u3110
  2229   00099E                     u3111:
  2230   00099E  EF7A  F004         	goto	l3004
  2231   0009A2                     u3110:
  2232   0009A2                     l891:
  2233                           
  2234                           ;C:\Program Files\Microchip\xc8\v2.41\pic\sources\c99\common\doprnt.c: 627:  mode = c;
  2235   0009A2  C034  F069         	movff	efgtoa@c,efgtoa@mode
  2236                           
  2237                           ;C:\Program Files\Microchip\xc8\v2.41\pic\sources\c99\common\doprnt.c: 629:     nmode = 
      +                          mode;
  2238   0009A6  C069  F06A         	movff	efgtoa@mode,efgtoa@nmode
  2239   0009AA                     
  2240                           ;C:\Program Files\Microchip\xc8\v2.41\pic\sources\c99\common\doprnt.c: 639:  {;C:\Progra
      +                          m Files\Microchip\xc8\v2.41\pic\sources\c99\common\doprnt.c: 640:         p = (prec < 0)
      +                           ? 6 : prec;
  2241   0009AA  BE5D               	btfsc	(_prec+1)^0,7,c
  2242   0009AC  EFDA  F004         	goto	u3121
  2243   0009B0  EFDC  F004         	goto	u3120
  2244   0009B4                     u3121:
  2245   0009B4  EFE2  F004         	goto	l3018
  2246   0009B8                     u3120:
  2247   0009B8  C05C  F062         	movff	_prec,efgtoa@p
  2248   0009BC  C05D  F063         	movff	_prec+1,efgtoa@p+1
  2249   0009C0  EFE7  F004         	goto	l3020
  2250   0009C4                     l3018:
  2251   0009C4  0E00               	movlw	0
  2252   0009C6  0100               	movlb	0	; () banked
  2253   0009C8  6F63               	movwf	(efgtoa@p+1)& (0+255),b
  2254   0009CA  0E06               	movlw	6
  2255   0009CC  6F62               	movwf	efgtoa@p& (0+255),b
  2256   0009CE                     l3020:
  2257                           
  2258                           ;C:\Program Files\Microchip\xc8\v2.41\pic\sources\c99\common\doprnt.c: 641:     };C:\Pro
      +                          gram Files\Microchip\xc8\v2.41\pic\sources\c99\common\doprnt.c: 655:     m = p;
  2259   0009CE  C062  F06D         	movff	efgtoa@p,efgtoa@m
  2260   0009D2  C063  F06E         	movff	efgtoa@p+1,efgtoa@m+1
  2261   0009D6                     
  2262                           ;C:\Program Files\Microchip\xc8\v2.41\pic\sources\c99\common\doprnt.c: 659:  {;C:\Progra
      +                          m Files\Microchip\xc8\v2.41\pic\sources\c99\common\doprnt.c: 660:         ++m;
  2263   0009D6  0100               	movlb	0	; () banked
  2264   0009D8  4B6D               	infsnz	efgtoa@m& (0+255),f,b
  2265   0009DA  2B6E               	incf	(efgtoa@m+1)& (0+255),f,b
  2266   0009DC                     
  2267                           ; BSR set to: 0
  2268                           ;C:\Program Files\Microchip\xc8\v2.41\pic\sources\c99\common\doprnt.c: 661:     };C:\Pro
      +                          gram Files\Microchip\xc8\v2.41\pic\sources\c99\common\doprnt.c: 665:     if (nmode == 'f
      +                          ') {
  2269   0009DC  0E66               	movlw	102
  2270   0009DE  196A               	xorwf	efgtoa@nmode& (0+255),w,b
  2271   0009E0  A4D8               	btfss	status,2,c
  2272   0009E2  EFF5  F004         	goto	u3131
  2273   0009E6  EFF7  F004         	goto	u3130
  2274   0009EA                     u3131:
  2275   0009EA  EF17  F005         	goto	l3034
  2276   0009EE                     u3130:
  2277   0009EE                     
  2278                           ; BSR set to: 0
  2279                           ;C:\Program Files\Microchip\xc8\v2.41\pic\sources\c99\common\doprnt.c: 666:         if (
      +                          e < 0) {
  2280   0009EE  BF70               	btfsc	(efgtoa@e+1)& (0+255),7,b
  2281   0009F0  EFFE  F004         	goto	u3140
  2282   0009F4  EFFC  F004         	goto	u3141
  2283   0009F8                     u3141:
  2284   0009F8  EF0A  F005         	goto	l3030
  2285   0009FC                     u3140:
  2286   0009FC                     
  2287                           ; BSR set to: 0
  2288                           ;C:\Program Files\Microchip\xc8\v2.41\pic\sources\c99\common\doprnt.c: 667:             
      +                          u.f = 1.0;
  2289   0009FC  0E00               	movlw	0
  2290   0009FE  6F88               	movwf	efgtoa@u& (0+255),b
  2291   000A00  0E00               	movlw	0
  2292   000A02  6F89               	movwf	(efgtoa@u+1)& (0+255),b
  2293   000A04  0E80               	movlw	128
  2294   000A06  6F8A               	movwf	(efgtoa@u+2)& (0+255),b
  2295   000A08  0E3F               	movlw	63
  2296   000A0A  6F8B               	movwf	(efgtoa@u+3)& (0+255),b
  2297                           
  2298                           ;C:\Program Files\Microchip\xc8\v2.41\pic\sources\c99\common\doprnt.c: 668:             
      +                          e = 0;
  2299   000A0C  0E00               	movlw	0
  2300   000A0E  6F70               	movwf	(efgtoa@e+1)& (0+255),b
  2301   000A10  0E00               	movlw	0
  2302   000A12  6F6F               	movwf	efgtoa@e& (0+255),b
  2303   000A14                     l3030:
  2304                           
  2305                           ; BSR set to: 0
  2306                           ;C:\Program Files\Microchip\xc8\v2.41\pic\sources\c99\common\doprnt.c: 670:         if (
      +                          !(mode == 'g')) {
  2307   000A14  0E67               	movlw	103
  2308   000A16  1969               	xorwf	efgtoa@mode& (0+255),w,b
  2309   000A18  B4D8               	btfsc	status,2,c
  2310   000A1A  EF11  F005         	goto	u3151
  2311   000A1E  EF13  F005         	goto	u3150
  2312   000A22                     u3151:
  2313   000A22  EF17  F005         	goto	l3034
  2314   000A26                     u3150:
  2315   000A26                     
  2316                           ; BSR set to: 0
  2317                           ;C:\Program Files\Microchip\xc8\v2.41\pic\sources\c99\common\doprnt.c: 671:             
      +                          m += e;
  2318   000A26  516F               	movf	efgtoa@e& (0+255),w,b
  2319   000A28  276D               	addwf	efgtoa@m& (0+255),f,b
  2320   000A2A  5170               	movf	(efgtoa@e+1)& (0+255),w,b
  2321   000A2C  236E               	addwfc	(efgtoa@m+1)& (0+255),f,b
  2322   000A2E                     l3034:
  2323                           
  2324                           ; BSR set to: 0
  2325                           ;C:\Program Files\Microchip\xc8\v2.41\pic\sources\c99\common\doprnt.c: 677:     i = 0;
  2326   000A2E  0E00               	movlw	0
  2327   000A30  6F78               	movwf	(efgtoa@i+1)& (0+255),b
  2328   000A32  0E00               	movlw	0
  2329   000A34  6F77               	movwf	efgtoa@i& (0+255),b
  2330   000A36                     
  2331                           ; BSR set to: 0
  2332                           ;C:\Program Files\Microchip\xc8\v2.41\pic\sources\c99\common\doprnt.c: 678:     h = g.f;
  2333   000A36  C084  F079         	movff	efgtoa@g,efgtoa@h
  2334   000A3A  C085  F07A         	movff	efgtoa@g+1,efgtoa@h+1
  2335   000A3E  C086  F07B         	movff	efgtoa@g+2,efgtoa@h+2
  2336   000A42  C087  F07C         	movff	efgtoa@g+3,efgtoa@h+3
  2337   000A46                     
  2338                           ; BSR set to: 0
  2339                           ;C:\Program Files\Microchip\xc8\v2.41\pic\sources\c99\common\doprnt.c: 679:     ou = u;
  2340   000A46  C088  F073         	movff	efgtoa@u,efgtoa@ou
  2341   000A4A  C089  F074         	movff	efgtoa@u+1,efgtoa@ou+1
  2342   000A4E  C08A  F075         	movff	efgtoa@u+2,efgtoa@ou+2
  2343   000A52  C08B  F076         	movff	efgtoa@u+3,efgtoa@ou+3
  2344                           
  2345                           ;C:\Program Files\Microchip\xc8\v2.41\pic\sources\c99\common\doprnt.c: 680:     while (i
      +                           < m) {
  2346   000A56  EFA8  F005         	goto	l3048
  2347   000A5A                     l3040:
  2348                           
  2349                           ; BSR set to: 0
  2350                           ;C:\Program Files\Microchip\xc8\v2.41\pic\sources\c99\common\doprnt.c: 681:         l = 
      +                          floorf(h/u.f);
  2351   000A5A  C079  F001         	movff	efgtoa@h,___fldiv@b
  2352   000A5E  C07A  F002         	movff	efgtoa@h+1,___fldiv@b+1
  2353   000A62  C07B  F003         	movff	efgtoa@h+2,___fldiv@b+2
  2354   000A66  C07C  F004         	movff	efgtoa@h+3,___fldiv@b+3
  2355   000A6A  C088  F005         	movff	efgtoa@u,___fldiv@a
  2356   000A6E  C089  F006         	movff	efgtoa@u+1,___fldiv@a+1
  2357   000A72  C08A  F007         	movff	efgtoa@u+2,___fldiv@a+2
  2358   000A76  C08B  F008         	movff	efgtoa@u+3,___fldiv@a+3
  2359   000A7A  EC7A  F00C         	call	___fldiv	;wreg free
  2360   000A7E  C001  F01A         	movff	?___fldiv,floorf@x
  2361   000A82  C002  F01B         	movff	?___fldiv+1,floorf@x+1
  2362   000A86  C003  F01C         	movff	?___fldiv+2,floorf@x+2
  2363   000A8A  C004  F01D         	movff	?___fldiv+3,floorf@x+3
  2364   000A8E  EC6C  F00F         	call	_floorf	;wreg free
  2365   000A92  C01A  F07D         	movff	?_floorf,efgtoa@l
  2366   000A96  C01B  F07E         	movff	?_floorf+1,efgtoa@l+1
  2367   000A9A  C01C  F07F         	movff	?_floorf+2,efgtoa@l+2
  2368   000A9E  C01D  F080         	movff	?_floorf+3,efgtoa@l+3
  2369                           
  2370                           ;C:\Program Files\Microchip\xc8\v2.41\pic\sources\c99\common\doprnt.c: 682:         d = 
      +                          (int)l;
  2371   000AA2  C07D  F001         	movff	efgtoa@l,___fltol@f1
  2372   000AA6  C07E  F002         	movff	efgtoa@l+1,___fltol@f1+1
  2373   000AAA  C07F  F003         	movff	efgtoa@l+2,___fltol@f1+2
  2374   000AAE  C080  F004         	movff	efgtoa@l+3,___fltol@f1+3
  2375   000AB2  ECFE  F010         	call	___fltol	;wreg free
  2376   000AB6  C001  F06B         	movff	?___fltol,efgtoa@d
  2377   000ABA  C002  F06C         	movff	?___fltol+1,efgtoa@d+1
  2378   000ABE                     
  2379                           ;C:\Program Files\Microchip\xc8\v2.41\pic\sources\c99\common\doprnt.c: 683:         h -=
      +                           l*u.f;
  2380   000ABE  C079  F01A         	movff	efgtoa@h,___flsub@b
  2381   000AC2  C07A  F01B         	movff	efgtoa@h+1,___flsub@b+1
  2382   000AC6  C07B  F01C         	movff	efgtoa@h+2,___flsub@b+2
  2383   000ACA  C07C  F01D         	movff	efgtoa@h+3,___flsub@b+3
  2384   000ACE  C07D  F005         	movff	efgtoa@l,___flmul@a
  2385   000AD2  C07E  F006         	movff	efgtoa@l+1,___flmul@a+1
  2386   000AD6  C07F  F007         	movff	efgtoa@l+2,___flmul@a+2
  2387   000ADA  C080  F008         	movff	efgtoa@l+3,___flmul@a+3
  2388   000ADE  C088  F001         	movff	efgtoa@u,___flmul@b
  2389   000AE2  C089  F002         	movff	efgtoa@u+1,___flmul@b+1
  2390   000AE6  C08A  F003         	movff	efgtoa@u+2,___flmul@b+2
  2391   000AEA  C08B  F004         	movff	efgtoa@u+3,___flmul@b+3
  2392   000AEE  EC65  F00A         	call	___flmul	;wreg free
  2393   000AF2  C001  F01E         	movff	?___flmul,___flsub@a
  2394   000AF6  C002  F01F         	movff	?___flmul+1,___flsub@a+1
  2395   000AFA  C003  F020         	movff	?___flmul+2,___flsub@a+2
  2396   000AFE  C004  F021         	movff	?___flmul+3,___flsub@a+3
  2397   000B02  EC9F  F014         	call	___flsub	;wreg free
  2398   000B06  C01A  F079         	movff	?___flsub,efgtoa@h
  2399   000B0A  C01B  F07A         	movff	?___flsub+1,efgtoa@h+1
  2400   000B0E  C01C  F07B         	movff	?___flsub+2,efgtoa@h+2
  2401   000B12  C01D  F07C         	movff	?___flsub+3,efgtoa@h+3
  2402   000B16                     
  2403                           ;C:\Program Files\Microchip\xc8\v2.41\pic\sources\c99\common\doprnt.c: 684:         u.f 
      +                          = u.f/10.0;
  2404   000B16  C088  F001         	movff	efgtoa@u,___fldiv@b
  2405   000B1A  C089  F002         	movff	efgtoa@u+1,___fldiv@b+1
  2406   000B1E  C08A  F003         	movff	efgtoa@u+2,___fldiv@b+2
  2407   000B22  C08B  F004         	movff	efgtoa@u+3,___fldiv@b+3
  2408   000B26  0E00               	movlw	0
  2409   000B28  6E05               	movwf	___fldiv@a^0,c
  2410   000B2A  0E00               	movlw	0
  2411   000B2C  6E06               	movwf	(___fldiv@a+1)^0,c
  2412   000B2E  0E20               	movlw	32
  2413   000B30  6E07               	movwf	(___fldiv@a+2)^0,c
  2414   000B32  0E41               	movlw	65
  2415   000B34  6E08               	movwf	(___fldiv@a+3)^0,c
  2416   000B36  EC7A  F00C         	call	___fldiv	;wreg free
  2417   000B3A  C001  F088         	movff	?___fldiv,efgtoa@u
  2418   000B3E  C002  F089         	movff	?___fldiv+1,efgtoa@u+1
  2419   000B42  C003  F08A         	movff	?___fldiv+2,efgtoa@u+2
  2420   000B46  C004  F08B         	movff	?___fldiv+3,efgtoa@u+3
  2421   000B4A                     
  2422                           ;C:\Program Files\Microchip\xc8\v2.41\pic\sources\c99\common\doprnt.c: 685:         ++i;
  2423   000B4A  0100               	movlb	0	; () banked
  2424   000B4C  4B77               	infsnz	efgtoa@i& (0+255),f,b
  2425   000B4E  2B78               	incf	(efgtoa@i+1)& (0+255),f,b
  2426   000B50                     l3048:
  2427                           
  2428                           ; BSR set to: 0
  2429                           ;C:\Program Files\Microchip\xc8\v2.41\pic\sources\c99\common\doprnt.c: 680:     while (i
      +                           < m) {
  2430   000B50  516D               	movf	efgtoa@m& (0+255),w,b
  2431   000B52  5D77               	subwf	efgtoa@i& (0+255),w,b
  2432   000B54  5178               	movf	(efgtoa@i+1)& (0+255),w,b
  2433   000B56  0A80               	xorlw	128
  2434   000B58  6E35               	movwf	??_efgtoa^0,c
  2435   000B5A  516E               	movf	(efgtoa@m+1)& (0+255),w,b
  2436   000B5C  0A80               	xorlw	128
  2437   000B5E  5835               	subwfb	??_efgtoa^0,w,c
  2438   000B60  A0D8               	btfss	status,0,c
  2439   000B62  EFB5  F005         	goto	u3161
  2440   000B66  EFB7  F005         	goto	u3160
  2441   000B6A                     u3161:
  2442   000B6A  EF2D  F005         	goto	l3040
  2443   000B6E                     u3160:
  2444   000B6E                     
  2445                           ; BSR set to: 0
  2446                           ;C:\Program Files\Microchip\xc8\v2.41\pic\sources\c99\common\doprnt.c: 689:     l = u.f*
      +                          5.0;
  2447   000B6E  C088  F001         	movff	efgtoa@u,___flmul@b
  2448   000B72  C089  F002         	movff	efgtoa@u+1,___flmul@b+1
  2449   000B76  C08A  F003         	movff	efgtoa@u+2,___flmul@b+2
  2450   000B7A  C08B  F004         	movff	efgtoa@u+3,___flmul@b+3
  2451   000B7E  0E00               	movlw	0
  2452   000B80  6E05               	movwf	___flmul@a^0,c
  2453   000B82  0E00               	movlw	0
  2454   000B84  6E06               	movwf	(___flmul@a+1)^0,c
  2455   000B86  0EA0               	movlw	160
  2456   000B88  6E07               	movwf	(___flmul@a+2)^0,c
  2457   000B8A  0E40               	movlw	64
  2458   000B8C  6E08               	movwf	(___flmul@a+3)^0,c
  2459   000B8E  EC65  F00A         	call	___flmul	;wreg free
  2460   000B92  C001  F07D         	movff	?___flmul,efgtoa@l
  2461   000B96  C002  F07E         	movff	?___flmul+1,efgtoa@l+1
  2462   000B9A  C003  F07F         	movff	?___flmul+2,efgtoa@l+2
  2463   000B9E  C004  F080         	movff	?___flmul+3,efgtoa@l+3
  2464   000BA2                     
  2465                           ;C:\Program Files\Microchip\xc8\v2.41\pic\sources\c99\common\doprnt.c: 690:     if (h < 
      +                          l) {
  2466   000BA2  C079  F01A         	movff	efgtoa@h,___flge@ff1
  2467   000BA6  C07A  F01B         	movff	efgtoa@h+1,___flge@ff1+1
  2468   000BAA  C07B  F01C         	movff	efgtoa@h+2,___flge@ff1+2
  2469   000BAE  C07C  F01D         	movff	efgtoa@h+3,___flge@ff1+3
  2470   000BB2  C07D  F01E         	movff	efgtoa@l,___flge@ff2
  2471   000BB6  C07E  F01F         	movff	efgtoa@l+1,___flge@ff2+1
  2472   000BBA  C07F  F020         	movff	efgtoa@l+2,___flge@ff2+2
  2473   000BBE  C080  F021         	movff	efgtoa@l+3,___flge@ff2+3
  2474   000BC2  EC81  F011         	call	___flge	;wreg free
  2475   000BC6  B0D8               	btfsc	status,0,c
  2476   000BC8  EFE8  F005         	goto	u3171
  2477   000BCC  EFEA  F005         	goto	u3170
  2478   000BD0                     u3171:
  2479   000BD0  EFF5  F005         	goto	l3056
  2480   000BD4                     u3170:
  2481   000BD4                     
  2482                           ;C:\Program Files\Microchip\xc8\v2.41\pic\sources\c99\common\doprnt.c: 691:         l = 
      +                          0.0;
  2483   000BD4  0E00               	movlw	0
  2484   000BD6  0100               	movlb	0	; () banked
  2485   000BD8  6F7D               	movwf	efgtoa@l& (0+255),b
  2486   000BDA  0E00               	movlw	0
  2487   000BDC  6F7E               	movwf	(efgtoa@l+1)& (0+255),b
  2488   000BDE  0E00               	movlw	0
  2489   000BE0  6F7F               	movwf	(efgtoa@l+2)& (0+255),b
  2490   000BE2  0E00               	movlw	0
  2491   000BE4  6F80               	movwf	(efgtoa@l+3)& (0+255),b
  2492                           
  2493                           ;C:\Program Files\Microchip\xc8\v2.41\pic\sources\c99\common\doprnt.c: 692:     } else {
  2494   000BE6  EF1E  F006         	goto	l3062
  2495   000BEA                     l3056:
  2496                           
  2497                           ;C:\Program Files\Microchip\xc8\v2.41\pic\sources\c99\common\doprnt.c: 694:         if (
      +                          (h == l) && !(d % 2)) {
  2498   000BEA  C079  F001         	movff	efgtoa@h,___fleq@ff1
  2499   000BEE  C07A  F002         	movff	efgtoa@h+1,___fleq@ff1+1
  2500   000BF2  C07B  F003         	movff	efgtoa@h+2,___fleq@ff1+2
  2501   000BF6  C07C  F004         	movff	efgtoa@h+3,___fleq@ff1+3
  2502   000BFA  C07D  F005         	movff	efgtoa@l,___fleq@ff2
  2503   000BFE  C07E  F006         	movff	efgtoa@l+1,___fleq@ff2+1
  2504   000C02  C07F  F007         	movff	efgtoa@l+2,___fleq@ff2+2
  2505   000C06  C080  F008         	movff	efgtoa@l+3,___fleq@ff2+3
  2506   000C0A  EC9F  F013         	call	___fleq	;wreg free
  2507   000C0E  A0D8               	btfss	status,0,c
  2508   000C10  EF0C  F006         	goto	u3181
  2509   000C14  EF0E  F006         	goto	u3180
  2510   000C18                     u3181:
  2511   000C18  EF1E  F006         	goto	l3062
  2512   000C1C                     u3180:
  2513   000C1C  0100               	movlb	0	; () banked
  2514   000C1E  B16B               	btfsc	efgtoa@d& (0+255),0,b
  2515   000C20  EF14  F006         	goto	u3191
  2516   000C24  EF16  F006         	goto	u3190
  2517   000C28                     u3191:
  2518   000C28  EF1E  F006         	goto	l3062
  2519   000C2C                     u3190:
  2520   000C2C                     
  2521                           ; BSR set to: 0
  2522                           ;C:\Program Files\Microchip\xc8\v2.41\pic\sources\c99\common\doprnt.c: 695:             
      +                          l = 0.0;
  2523   000C2C  0E00               	movlw	0
  2524   000C2E  6F7D               	movwf	efgtoa@l& (0+255),b
  2525   000C30  0E00               	movlw	0
  2526   000C32  6F7E               	movwf	(efgtoa@l+1)& (0+255),b
  2527   000C34  0E00               	movlw	0
  2528   000C36  6F7F               	movwf	(efgtoa@l+2)& (0+255),b
  2529   000C38  0E00               	movlw	0
  2530   000C3A  6F80               	movwf	(efgtoa@l+3)& (0+255),b
  2531   000C3C                     l3062:
  2532                           
  2533                           ;C:\Program Files\Microchip\xc8\v2.41\pic\sources\c99\common\doprnt.c: 700:     h = g.f 
      +                          + l;
  2534   000C3C  C084  F001         	movff	efgtoa@g,___fladd@b
  2535   000C40  C085  F002         	movff	efgtoa@g+1,___fladd@b+1
  2536   000C44  C086  F003         	movff	efgtoa@g+2,___fladd@b+2
  2537   000C48  C087  F004         	movff	efgtoa@g+3,___fladd@b+3
  2538   000C4C  C07D  F005         	movff	efgtoa@l,___fladd@a
  2539   000C50  C07E  F006         	movff	efgtoa@l+1,___fladd@a+1
  2540   000C54  C07F  F007         	movff	efgtoa@l+2,___fladd@a+2
  2541   000C58  C080  F008         	movff	efgtoa@l+3,___fladd@a+3
  2542   000C5C  EC05  F008         	call	___fladd	;wreg free
  2543   000C60  C001  F079         	movff	?___fladd,efgtoa@h
  2544   000C64  C002  F07A         	movff	?___fladd+1,efgtoa@h+1
  2545   000C68  C003  F07B         	movff	?___fladd+2,efgtoa@h+2
  2546   000C6C  C004  F07C         	movff	?___fladd+3,efgtoa@h+3
  2547   000C70                     
  2548                           ;C:\Program Files\Microchip\xc8\v2.41\pic\sources\c99\common\doprnt.c: 702:  if (h >= (o
      +                          u.f*10.0)) {
  2549   000C70  C079  F01A         	movff	efgtoa@h,___flge@ff1
  2550   000C74  C07A  F01B         	movff	efgtoa@h+1,___flge@ff1+1
  2551   000C78  C07B  F01C         	movff	efgtoa@h+2,___flge@ff1+2
  2552   000C7C  C07C  F01D         	movff	efgtoa@h+3,___flge@ff1+3
  2553   000C80  0E00               	movlw	0
  2554   000C82  6E05               	movwf	___flmul@a^0,c
  2555   000C84  0E00               	movlw	0
  2556   000C86  6E06               	movwf	(___flmul@a+1)^0,c
  2557   000C88  0E20               	movlw	32
  2558   000C8A  6E07               	movwf	(___flmul@a+2)^0,c
  2559   000C8C  0E41               	movlw	65
  2560   000C8E  6E08               	movwf	(___flmul@a+3)^0,c
  2561   000C90  C073  F001         	movff	efgtoa@ou,___flmul@b
  2562   000C94  C074  F002         	movff	efgtoa@ou+1,___flmul@b+1
  2563   000C98  C075  F003         	movff	efgtoa@ou+2,___flmul@b+2
  2564   000C9C  C076  F004         	movff	efgtoa@ou+3,___flmul@b+3
  2565   000CA0  EC65  F00A         	call	___flmul	;wreg free
  2566   000CA4  C001  F01E         	movff	?___flmul,___flge@ff2
  2567   000CA8  C002  F01F         	movff	?___flmul+1,___flge@ff2+1
  2568   000CAC  C003  F020         	movff	?___flmul+2,___flge@ff2+2
  2569   000CB0  C004  F021         	movff	?___flmul+3,___flge@ff2+3
  2570   000CB4  EC81  F011         	call	___flge	;wreg free
  2571   000CB8  A0D8               	btfss	status,0,c
  2572   000CBA  EF61  F006         	goto	u3201
  2573   000CBE  EF63  F006         	goto	u3200
  2574   000CC2                     u3201:
  2575   000CC2  EF8C  F006         	goto	l3074
  2576   000CC6                     u3200:
  2577   000CC6                     
  2578                           ;C:\Program Files\Microchip\xc8\v2.41\pic\sources\c99\common\doprnt.c: 703:   e++;
  2579   000CC6  0100               	movlb	0	; () banked
  2580   000CC8  4B6F               	infsnz	efgtoa@e& (0+255),f,b
  2581   000CCA  2B70               	incf	(efgtoa@e+1)& (0+255),f,b
  2582   000CCC                     
  2583                           ; BSR set to: 0
  2584                           ;C:\Program Files\Microchip\xc8\v2.41\pic\sources\c99\common\doprnt.c: 704:   ou.f *= 10
      +                          .0;
  2585   000CCC  C073  F001         	movff	efgtoa@ou,___flmul@b
  2586   000CD0  C074  F002         	movff	efgtoa@ou+1,___flmul@b+1
  2587   000CD4  C075  F003         	movff	efgtoa@ou+2,___flmul@b+2
  2588   000CD8  C076  F004         	movff	efgtoa@ou+3,___flmul@b+3
  2589   000CDC  0E00               	movlw	0
  2590   000CDE  6E05               	movwf	___flmul@a^0,c
  2591   000CE0  0E00               	movlw	0
  2592   000CE2  6E06               	movwf	(___flmul@a+1)^0,c
  2593   000CE4  0E20               	movlw	32
  2594   000CE6  6E07               	movwf	(___flmul@a+2)^0,c
  2595   000CE8  0E41               	movlw	65
  2596   000CEA  6E08               	movwf	(___flmul@a+3)^0,c
  2597   000CEC  EC65  F00A         	call	___flmul	;wreg free
  2598   000CF0  C001  F073         	movff	?___flmul,efgtoa@ou
  2599   000CF4  C002  F074         	movff	?___flmul+1,efgtoa@ou+1
  2600   000CF8  C003  F075         	movff	?___flmul+2,efgtoa@ou+2
  2601   000CFC  C004  F076         	movff	?___flmul+3,efgtoa@ou+3
  2602   000D00                     
  2603                           ;C:\Program Files\Microchip\xc8\v2.41\pic\sources\c99\common\doprnt.c: 706:   if (nmode 
      +                          == 'f') {
  2604   000D00  0E66               	movlw	102
  2605   000D02  0100               	movlb	0	; () banked
  2606   000D04  196A               	xorwf	efgtoa@nmode& (0+255),w,b
  2607   000D06  A4D8               	btfss	status,2,c
  2608   000D08  EF88  F006         	goto	u3211
  2609   000D0C  EF8A  F006         	goto	u3210
  2610   000D10                     u3211:
  2611   000D10  EF8C  F006         	goto	l3074
  2612   000D14                     u3210:
  2613   000D14                     
  2614                           ; BSR set to: 0
  2615                           ;C:\Program Files\Microchip\xc8\v2.41\pic\sources\c99\common\doprnt.c: 708:    m++;
  2616   000D14  4B6D               	infsnz	efgtoa@m& (0+255),f,b
  2617   000D16  2B6E               	incf	(efgtoa@m+1)& (0+255),f,b
  2618   000D18                     l3074:
  2619                           
  2620                           ;C:\Program Files\Microchip\xc8\v2.41\pic\sources\c99\common\doprnt.c: 714:     u = ou;
  2621   000D18  C073  F088         	movff	efgtoa@ou,efgtoa@u
  2622   000D1C  C074  F089         	movff	efgtoa@ou+1,efgtoa@u+1
  2623   000D20  C075  F08A         	movff	efgtoa@ou+2,efgtoa@u+2
  2624   000D24  C076  F08B         	movff	efgtoa@ou+3,efgtoa@u+3
  2625   000D28                     
  2626                           ;C:\Program Files\Microchip\xc8\v2.41\pic\sources\c99\common\doprnt.c: 718:  ne = e;
  2627   000D28  C06F  F060         	movff	efgtoa@e,efgtoa@ne
  2628   000D2C  C070  F061         	movff	efgtoa@e+1,efgtoa@ne+1
  2629   000D30                     
  2630                           ;C:\Program Files\Microchip\xc8\v2.41\pic\sources\c99\common\doprnt.c: 720:     pp = 0;
  2631   000D30  0E00               	movlw	0
  2632   000D32  0100               	movlb	0	; () banked
  2633   000D34  6F68               	movwf	efgtoa@pp& (0+255),b
  2634   000D36                     
  2635                           ; BSR set to: 0
  2636                           ;C:\Program Files\Microchip\xc8\v2.41\pic\sources\c99\common\doprnt.c: 721:     t = 0;
  2637   000D36  0E00               	movlw	0
  2638   000D38  6F65               	movwf	(efgtoa@t+1)& (0+255),b
  2639   000D3A  0E00               	movlw	0
  2640   000D3C  6F64               	movwf	efgtoa@t& (0+255),b
  2641   000D3E                     
  2642                           ; BSR set to: 0
  2643                           ;C:\Program Files\Microchip\xc8\v2.41\pic\sources\c99\common\doprnt.c: 722:     i = 0;
  2644   000D3E  0E00               	movlw	0
  2645   000D40  6F78               	movwf	(efgtoa@i+1)& (0+255),b
  2646   000D42  0E00               	movlw	0
  2647   000D44  6F77               	movwf	efgtoa@i& (0+255),b
  2648                           
  2649                           ;C:\Program Files\Microchip\xc8\v2.41\pic\sources\c99\common\doprnt.c: 723:     while ((
      +                          i < m) && (n < (80 - 5))) {
  2650   000D46  EF8A  F007         	goto	l3124
  2651   000D4A                     l3084:
  2652                           
  2653                           ; BSR set to: 0
  2654                           ;C:\Program Files\Microchip\xc8\v2.41\pic\sources\c99\common\doprnt.c: 724:         l = 
      +                          floorf(h/u.f);
  2655   000D4A  C079  F001         	movff	efgtoa@h,___fldiv@b
  2656   000D4E  C07A  F002         	movff	efgtoa@h+1,___fldiv@b+1
  2657   000D52  C07B  F003         	movff	efgtoa@h+2,___fldiv@b+2
  2658   000D56  C07C  F004         	movff	efgtoa@h+3,___fldiv@b+3
  2659   000D5A  C088  F005         	movff	efgtoa@u,___fldiv@a
  2660   000D5E  C089  F006         	movff	efgtoa@u+1,___fldiv@a+1
  2661   000D62  C08A  F007         	movff	efgtoa@u+2,___fldiv@a+2
  2662   000D66  C08B  F008         	movff	efgtoa@u+3,___fldiv@a+3
  2663   000D6A  EC7A  F00C         	call	___fldiv	;wreg free
  2664   000D6E  C001  F01A         	movff	?___fldiv,floorf@x
  2665   000D72  C002  F01B         	movff	?___fldiv+1,floorf@x+1
  2666   000D76  C003  F01C         	movff	?___fldiv+2,floorf@x+2
  2667   000D7A  C004  F01D         	movff	?___fldiv+3,floorf@x+3
  2668   000D7E  EC6C  F00F         	call	_floorf	;wreg free
  2669   000D82  C01A  F07D         	movff	?_floorf,efgtoa@l
  2670   000D86  C01B  F07E         	movff	?_floorf+1,efgtoa@l+1
  2671   000D8A  C01C  F07F         	movff	?_floorf+2,efgtoa@l+2
  2672   000D8E  C01D  F080         	movff	?_floorf+3,efgtoa@l+3
  2673                           
  2674                           ;C:\Program Files\Microchip\xc8\v2.41\pic\sources\c99\common\doprnt.c: 725:         d = 
      +                          (int)l > 9 ? 9 : (int)l;
  2675   000D92  C07D  F001         	movff	efgtoa@l,___fltol@f1
  2676   000D96  C07E  F002         	movff	efgtoa@l+1,___fltol@f1+1
  2677   000D9A  C07F  F003         	movff	efgtoa@l+2,___fltol@f1+2
  2678   000D9E  C080  F004         	movff	efgtoa@l+3,___fltol@f1+3
  2679   000DA2  ECFE  F010         	call	___fltol	;wreg free
  2680   000DA6  BE02               	btfsc	(?___fltol+1)^0,7,c
  2681   000DA8  EFE1  F006         	goto	u3220
  2682   000DAC  5002               	movf	(?___fltol+1)^0,w,c
  2683   000DAE  E107               	bnz	u3221
  2684   000DB0  0E0A               	movlw	10
  2685   000DB2  5C01               	subwf	?___fltol^0,w,c
  2686   000DB4  B0D8               	btfsc	status,0,c
  2687   000DB6  EFDF  F006         	goto	u3221
  2688   000DBA  EFE1  F006         	goto	u3220
  2689   000DBE                     u3221:
  2690   000DBE  EFF1  F006         	goto	l3088
  2691   000DC2                     u3220:
  2692   000DC2  C07D  F001         	movff	efgtoa@l,___fltol@f1
  2693   000DC6  C07E  F002         	movff	efgtoa@l+1,___fltol@f1+1
  2694   000DCA  C07F  F003         	movff	efgtoa@l+2,___fltol@f1+2
  2695   000DCE  C080  F004         	movff	efgtoa@l+3,___fltol@f1+3
  2696   000DD2  ECFE  F010         	call	___fltol	;wreg free
  2697   000DD6  C001  F06B         	movff	?___fltol,efgtoa@d
  2698   000DDA  C002  F06C         	movff	?___fltol+1,efgtoa@d+1
  2699   000DDE  EFF6  F006         	goto	l921
  2700   000DE2                     l3088:
  2701   000DE2  0E00               	movlw	0
  2702   000DE4  0100               	movlb	0	; () banked
  2703   000DE6  6F6C               	movwf	(efgtoa@d+1)& (0+255),b
  2704   000DE8  0E09               	movlw	9
  2705   000DEA  6F6B               	movwf	efgtoa@d& (0+255),b
  2706   000DEC                     l921:
  2707                           
  2708                           ;C:\Program Files\Microchip\xc8\v2.41\pic\sources\c99\common\doprnt.c: 736:   {;C:\Progr
      +                          am Files\Microchip\xc8\v2.41\pic\sources\c99\common\doprnt.c: 737:             if (!pp &
      +                          & (ne < 0)) {
  2709   000DEC  0100               	movlb	0	; () banked
  2710   000DEE  5168               	movf	efgtoa@pp& (0+255),w,b
  2711   000DF0  A4D8               	btfss	status,2,c
  2712   000DF2  EFFD  F006         	goto	u3231
  2713   000DF6  EFFF  F006         	goto	u3230
  2714   000DFA                     u3231:
  2715   000DFA  EF27  F007         	goto	l3108
  2716   000DFE                     u3230:
  2717   000DFE                     
  2718                           ; BSR set to: 0
  2719   000DFE  BF61               	btfsc	(efgtoa@ne+1)& (0+255),7,b
  2720   000E00  EF06  F007         	goto	u3240
  2721   000E04  EF04  F007         	goto	u3241
  2722   000E08                     u3241:
  2723   000E08  EF27  F007         	goto	l3108
  2724   000E0C                     u3240:
  2725   000E0C                     
  2726                           ; BSR set to: 0
  2727                           ;C:\Program Files\Microchip\xc8\v2.41\pic\sources\c99\common\doprnt.c: 738:             
      +                              dbuf[n++] = '.';
  2728   000E0C  0E00               	movlw	low _dbuf
  2729   000E0E  2582               	addwf	efgtoa@n& (0+255),w,b
  2730   000E10  6ED9               	movwf	fsr2l,c
  2731   000E12  0E01               	movlw	high _dbuf
  2732   000E14  2183               	addwfc	(efgtoa@n+1)& (0+255),w,b
  2733   000E16  6EDA               	movwf	fsr2h,c
  2734   000E18  0E2E               	movlw	46
  2735   000E1A  6EDF               	movwf	indf2,c
  2736   000E1C                     
  2737                           ; BSR set to: 0
  2738   000E1C  4B82               	infsnz	efgtoa@n& (0+255),f,b
  2739   000E1E  2B83               	incf	(efgtoa@n+1)& (0+255),f,b
  2740   000E20                     
  2741                           ; BSR set to: 0
  2742                           ;C:\Program Files\Microchip\xc8\v2.41\pic\sources\c99\common\doprnt.c: 739:             
      +                              --w;
  2743   000E20  0771               	decf	efgtoa@w& (0+255),f,b
  2744   000E22  A0D8               	btfss	status,0,c
  2745   000E24  0772               	decf	(efgtoa@w+1)& (0+255),f,b
  2746   000E26                     
  2747                           ; BSR set to: 0
  2748                           ;C:\Program Files\Microchip\xc8\v2.41\pic\sources\c99\common\doprnt.c: 740:             
      +                              pp = 1;
  2749   000E26  0E01               	movlw	1
  2750   000E28  6F68               	movwf	efgtoa@pp& (0+255),b
  2751   000E2A  EF27  F007         	goto	l3108
  2752   000E2E                     l3100:
  2753                           
  2754                           ; BSR set to: 0
  2755                           ;C:\Program Files\Microchip\xc8\v2.41\pic\sources\c99\common\doprnt.c: 743:             
      +                              dbuf[n++] = '0';
  2756   000E2E  0E00               	movlw	low _dbuf
  2757   000E30  2582               	addwf	efgtoa@n& (0+255),w,b
  2758   000E32  6ED9               	movwf	fsr2l,c
  2759   000E34  0E01               	movlw	high _dbuf
  2760   000E36  2183               	addwfc	(efgtoa@n+1)& (0+255),w,b
  2761   000E38  6EDA               	movwf	fsr2h,c
  2762   000E3A  0E30               	movlw	48
  2763   000E3C  6EDF               	movwf	indf2,c
  2764   000E3E                     
  2765                           ; BSR set to: 0
  2766   000E3E  4B82               	infsnz	efgtoa@n& (0+255),f,b
  2767   000E40  2B83               	incf	(efgtoa@n+1)& (0+255),f,b
  2768   000E42                     
  2769                           ; BSR set to: 0
  2770                           ;C:\Program Files\Microchip\xc8\v2.41\pic\sources\c99\common\doprnt.c: 744:             
      +                              --w;
  2771   000E42  0771               	decf	efgtoa@w& (0+255),f,b
  2772   000E44  A0D8               	btfss	status,0,c
  2773   000E46  0772               	decf	(efgtoa@w+1)& (0+255),f,b
  2774   000E48                     
  2775                           ; BSR set to: 0
  2776                           ;C:\Program Files\Microchip\xc8\v2.41\pic\sources\c99\common\doprnt.c: 745:             
      +                              --t;
  2777   000E48  0764               	decf	efgtoa@t& (0+255),f,b
  2778   000E4A  A0D8               	btfss	status,0,c
  2779   000E4C  0765               	decf	(efgtoa@t+1)& (0+255),f,b
  2780   000E4E                     l3108:
  2781                           
  2782                           ; BSR set to: 0
  2783                           ;C:\Program Files\Microchip\xc8\v2.41\pic\sources\c99\common\doprnt.c: 742:             
      +                          while (t) {
  2784   000E4E  5164               	movf	efgtoa@t& (0+255),w,b
  2785   000E50  1165               	iorwf	(efgtoa@t+1)& (0+255),w,b
  2786   000E52  A4D8               	btfss	status,2,c
  2787   000E54  EF2E  F007         	goto	u3251
  2788   000E58  EF30  F007         	goto	u3250
  2789   000E5C                     u3251:
  2790   000E5C  EF17  F007         	goto	l3100
  2791   000E60                     u3250:
  2792   000E60                     
  2793                           ; BSR set to: 0
  2794                           ;C:\Program Files\Microchip\xc8\v2.41\pic\sources\c99\common\doprnt.c: 747:             
      +                          dbuf[n++] = (char)((int)'0' + d);
  2795   000E60  0E00               	movlw	low _dbuf
  2796   000E62  2582               	addwf	efgtoa@n& (0+255),w,b
  2797   000E64  6ED9               	movwf	fsr2l,c
  2798   000E66  0E01               	movlw	high _dbuf
  2799   000E68  2183               	addwfc	(efgtoa@n+1)& (0+255),w,b
  2800   000E6A  6EDA               	movwf	fsr2h,c
  2801   000E6C  516B               	movf	efgtoa@d& (0+255),w,b
  2802   000E6E  0F30               	addlw	48
  2803   000E70  6EDF               	movwf	indf2,c
  2804   000E72                     
  2805                           ; BSR set to: 0
  2806   000E72  4B82               	infsnz	efgtoa@n& (0+255),f,b
  2807   000E74  2B83               	incf	(efgtoa@n+1)& (0+255),f,b
  2808   000E76                     
  2809                           ; BSR set to: 0
  2810                           ;C:\Program Files\Microchip\xc8\v2.41\pic\sources\c99\common\doprnt.c: 748:             
      +                          --w;
  2811   000E76  0771               	decf	efgtoa@w& (0+255),f,b
  2812   000E78  A0D8               	btfss	status,0,c
  2813   000E7A  0772               	decf	(efgtoa@w+1)& (0+255),f,b
  2814   000E7C                     
  2815                           ; BSR set to: 0
  2816                           ;C:\Program Files\Microchip\xc8\v2.41\pic\sources\c99\common\doprnt.c: 749:         };C:
      +                          \Program Files\Microchip\xc8\v2.41\pic\sources\c99\common\doprnt.c: 750:         h -= l*
      +                          u.f;
  2817   000E7C  C079  F01A         	movff	efgtoa@h,___flsub@b
  2818   000E80  C07A  F01B         	movff	efgtoa@h+1,___flsub@b+1
  2819   000E84  C07B  F01C         	movff	efgtoa@h+2,___flsub@b+2
  2820   000E88  C07C  F01D         	movff	efgtoa@h+3,___flsub@b+3
  2821   000E8C  C07D  F005         	movff	efgtoa@l,___flmul@a
  2822   000E90  C07E  F006         	movff	efgtoa@l+1,___flmul@a+1
  2823   000E94  C07F  F007         	movff	efgtoa@l+2,___flmul@a+2
  2824   000E98  C080  F008         	movff	efgtoa@l+3,___flmul@a+3
  2825   000E9C  C088  F001         	movff	efgtoa@u,___flmul@b
  2826   000EA0  C089  F002         	movff	efgtoa@u+1,___flmul@b+1
  2827   000EA4  C08A  F003         	movff	efgtoa@u+2,___flmul@b+2
  2828   000EA8  C08B  F004         	movff	efgtoa@u+3,___flmul@b+3
  2829   000EAC  EC65  F00A         	call	___flmul	;wreg free
  2830   000EB0  C001  F01E         	movff	?___flmul,___flsub@a
  2831   000EB4  C002  F01F         	movff	?___flmul+1,___flsub@a+1
  2832   000EB8  C003  F020         	movff	?___flmul+2,___flsub@a+2
  2833   000EBC  C004  F021         	movff	?___flmul+3,___flsub@a+3
  2834   000EC0  EC9F  F014         	call	___flsub	;wreg free
  2835   000EC4  C01A  F079         	movff	?___flsub,efgtoa@h
  2836   000EC8  C01B  F07A         	movff	?___flsub+1,efgtoa@h+1
  2837   000ECC  C01C  F07B         	movff	?___flsub+2,efgtoa@h+2
  2838   000ED0  C01D  F07C         	movff	?___flsub+3,efgtoa@h+3
  2839   000ED4                     
  2840                           ;C:\Program Files\Microchip\xc8\v2.41\pic\sources\c99\common\doprnt.c: 751:         u.f 
      +                          = u.f/10.0;
  2841   000ED4  C088  F001         	movff	efgtoa@u,___fldiv@b
  2842   000ED8  C089  F002         	movff	efgtoa@u+1,___fldiv@b+1
  2843   000EDC  C08A  F003         	movff	efgtoa@u+2,___fldiv@b+2
  2844   000EE0  C08B  F004         	movff	efgtoa@u+3,___fldiv@b+3
  2845   000EE4  0E00               	movlw	0
  2846   000EE6  6E05               	movwf	___fldiv@a^0,c
  2847   000EE8  0E00               	movlw	0
  2848   000EEA  6E06               	movwf	(___fldiv@a+1)^0,c
  2849   000EEC  0E20               	movlw	32
  2850   000EEE  6E07               	movwf	(___fldiv@a+2)^0,c
  2851   000EF0  0E41               	movlw	65
  2852   000EF2  6E08               	movwf	(___fldiv@a+3)^0,c
  2853   000EF4  EC7A  F00C         	call	___fldiv	;wreg free
  2854   000EF8  C001  F088         	movff	?___fldiv,efgtoa@u
  2855   000EFC  C002  F089         	movff	?___fldiv+1,efgtoa@u+1
  2856   000F00  C003  F08A         	movff	?___fldiv+2,efgtoa@u+2
  2857   000F04  C004  F08B         	movff	?___fldiv+3,efgtoa@u+3
  2858   000F08                     
  2859                           ;C:\Program Files\Microchip\xc8\v2.41\pic\sources\c99\common\doprnt.c: 752:         --ne
      +                          ;
  2860   000F08  0100               	movlb	0	; () banked
  2861   000F0A  0760               	decf	efgtoa@ne& (0+255),f,b
  2862   000F0C  A0D8               	btfss	status,0,c
  2863   000F0E  0761               	decf	(efgtoa@ne+1)& (0+255),f,b
  2864   000F10                     
  2865                           ; BSR set to: 0
  2866                           ;C:\Program Files\Microchip\xc8\v2.41\pic\sources\c99\common\doprnt.c: 753:         ++i;
  2867   000F10  4B77               	infsnz	efgtoa@i& (0+255),f,b
  2868   000F12  2B78               	incf	(efgtoa@i+1)& (0+255),f,b
  2869   000F14                     l3124:
  2870                           
  2871                           ; BSR set to: 0
  2872                           ;C:\Program Files\Microchip\xc8\v2.41\pic\sources\c99\common\doprnt.c: 723:     while ((
      +                          i < m) && (n < (80 - 5))) {
  2873   000F14  516D               	movf	efgtoa@m& (0+255),w,b
  2874   000F16  5D77               	subwf	efgtoa@i& (0+255),w,b
  2875   000F18  5178               	movf	(efgtoa@i+1)& (0+255),w,b
  2876   000F1A  0A80               	xorlw	128
  2877   000F1C  6E35               	movwf	??_efgtoa^0,c
  2878   000F1E  516E               	movf	(efgtoa@m+1)& (0+255),w,b
  2879   000F20  0A80               	xorlw	128
  2880   000F22  5835               	subwfb	??_efgtoa^0,w,c
  2881   000F24  B0D8               	btfsc	status,0,c
  2882   000F26  EF97  F007         	goto	u3261
  2883   000F2A  EF99  F007         	goto	u3260
  2884   000F2E                     u3261:
  2885   000F2E  EFA7  F007         	goto	l3128
  2886   000F32                     u3260:
  2887   000F32                     
  2888                           ; BSR set to: 0
  2889   000F32  BF83               	btfsc	(efgtoa@n+1)& (0+255),7,b
  2890   000F34  EFA5  F007         	goto	u3271
  2891   000F38  5183               	movf	(efgtoa@n+1)& (0+255),w,b
  2892   000F3A  E109               	bnz	u3270
  2893   000F3C  0E4B               	movlw	75
  2894   000F3E  5D82               	subwf	efgtoa@n& (0+255),w,b
  2895   000F40  A0D8               	btfss	status,0,c
  2896   000F42  EFA5  F007         	goto	u3271
  2897   000F46  EFA7  F007         	goto	u3270
  2898   000F4A                     u3271:
  2899   000F4A  EFA5  F006         	goto	l3084
  2900   000F4E                     u3270:
  2901   000F4E                     l3128:
  2902                           
  2903                           ; BSR set to: 0
  2904                           ;C:\Program Files\Microchip\xc8\v2.41\pic\sources\c99\common\doprnt.c: 760:  i = sizeof(
      +                          dbuf) - 1;
  2905   000F4E  0E00               	movlw	0
  2906   000F50  6F78               	movwf	(efgtoa@i+1)& (0+255),b
  2907   000F52  0E4F               	movlw	79
  2908   000F54  6F77               	movwf	efgtoa@i& (0+255),b
  2909   000F56                     
  2910                           ; BSR set to: 0
  2911                           ;C:\Program Files\Microchip\xc8\v2.41\pic\sources\c99\common\doprnt.c: 761:     dbuf[i] 
      +                          = '\0';
  2912   000F56  0E00               	movlw	low _dbuf
  2913   000F58  2577               	addwf	efgtoa@i& (0+255),w,b
  2914   000F5A  6ED9               	movwf	fsr2l,c
  2915   000F5C  0E01               	movlw	high _dbuf
  2916   000F5E  2178               	addwfc	(efgtoa@i+1)& (0+255),w,b
  2917   000F60  6EDA               	movwf	fsr2h,c
  2918   000F62  6ADF               	clrf	indf2,c
  2919   000F64                     
  2920                           ; BSR set to: 0
  2921                           ;C:\Program Files\Microchip\xc8\v2.41\pic\sources\c99\common\doprnt.c: 792:  memcpy(&dbu
      +                          f[i-n], &dbuf[0], (size_t)n);
  2922   000F64  0E00               	movlw	low _dbuf
  2923   000F66  6E35               	movwf	??_efgtoa^0,c
  2924   000F68  0E01               	movlw	high _dbuf
  2925   000F6A  6E36               	movwf	(??_efgtoa+1)^0,c
  2926   000F6C  5182               	movf	efgtoa@n& (0+255),w,b
  2927   000F6E  5E35               	subwf	??_efgtoa^0,f,c
  2928   000F70  5183               	movf	(efgtoa@n+1)& (0+255),w,b
  2929   000F72  5A36               	subwfb	(??_efgtoa+1)^0,f,c
  2930   000F74  5177               	movf	efgtoa@i& (0+255),w,b
  2931   000F76  2435               	addwf	??_efgtoa^0,w,c
  2932   000F78  6E01               	movwf	memcpy@d1^0,c
  2933   000F7A  5178               	movf	(efgtoa@i+1)& (0+255),w,b
  2934   000F7C  2036               	addwfc	(??_efgtoa+1)^0,w,c
  2935   000F7E  6E02               	movwf	(memcpy@d1+1)^0,c
  2936   000F80  0E00               	movlw	low _dbuf
  2937   000F82  6E03               	movwf	memcpy@s1^0,c
  2938   000F84  0E01               	movlw	high _dbuf
  2939   000F86  6E04               	movwf	(memcpy@s1+1)^0,c
  2940   000F88  C082  F005         	movff	efgtoa@n,memcpy@n
  2941   000F8C  C083  F006         	movff	efgtoa@n+1,memcpy@n+1
  2942   000F90  EC77  F014         	call	_memcpy	;wreg free
  2943   000F94                     
  2944                           ;C:\Program Files\Microchip\xc8\v2.41\pic\sources\c99\common\doprnt.c: 793:  n = i-n;
  2945   000F94  0100               	movlb	0	; () banked
  2946   000F96  5182               	movf	efgtoa@n& (0+255),w,b
  2947   000F98  5D77               	subwf	efgtoa@i& (0+255),w,b
  2948   000F9A  6F82               	movwf	efgtoa@n& (0+255),b
  2949   000F9C  5183               	movf	(efgtoa@n+1)& (0+255),w,b
  2950   000F9E  5978               	subwfb	(efgtoa@i+1)& (0+255),w,b
  2951   000FA0  6F83               	movwf	(efgtoa@n+1)& (0+255),b
  2952   000FA2                     
  2953                           ; BSR set to: 0
  2954                           ;C:\Program Files\Microchip\xc8\v2.41\pic\sources\c99\common\doprnt.c: 794:  i = sign ==
      +                           0 ? 0 : 1;
  2955   000FA2  5181               	movf	efgtoa@sign& (0+255),w,b
  2956   000FA4  A4D8               	btfss	status,2,c
  2957   000FA6  EFD7  F007         	goto	u3281
  2958   000FAA  EFDA  F007         	goto	u3280
  2959   000FAE                     u3281:
  2960   000FAE  0E01               	movlw	1
  2961   000FB0  EFDB  F007         	goto	u3290
  2962   000FB4                     u3280:
  2963   000FB4  0E00               	movlw	0
  2964   000FB6                     u3290:
  2965   000FB6  6F77               	movwf	efgtoa@i& (0+255),b
  2966   000FB8  6B78               	clrf	(efgtoa@i+1)& (0+255),b
  2967   000FBA                     
  2968                           ; BSR set to: 0
  2969                           ;C:\Program Files\Microchip\xc8\v2.41\pic\sources\c99\common\doprnt.c: 805:  if (sign) {
  2970   000FBA  5181               	movf	efgtoa@sign& (0+255),w,b
  2971   000FBC  B4D8               	btfsc	status,2,c
  2972   000FBE  EFE3  F007         	goto	u3301
  2973   000FC2  EFE5  F007         	goto	u3300
  2974   000FC6                     u3301:
  2975   000FC6  EFF0  F007         	goto	l3142
  2976   000FCA                     u3300:
  2977   000FCA                     
  2978                           ; BSR set to: 0
  2979                           ;C:\Program Files\Microchip\xc8\v2.41\pic\sources\c99\common\doprnt.c: 806:   dbuf[--n] 
      +                          = sign;
  2980   000FCA  0782               	decf	efgtoa@n& (0+255),f,b
  2981   000FCC  A0D8               	btfss	status,0,c
  2982   000FCE  0783               	decf	(efgtoa@n+1)& (0+255),f,b
  2983   000FD0  0E00               	movlw	low _dbuf
  2984   000FD2  2582               	addwf	efgtoa@n& (0+255),w,b
  2985   000FD4  6ED9               	movwf	fsr2l,c
  2986   000FD6  0E01               	movlw	high _dbuf
  2987   000FD8  2183               	addwfc	(efgtoa@n+1)& (0+255),w,b
  2988   000FDA  6EDA               	movwf	fsr2h,c
  2989   000FDC  C081  FFDF         	movff	efgtoa@sign,indf2
  2990   000FE0                     l3142:
  2991                           
  2992                           ; BSR set to: 0
  2993                           ;C:\Program Files\Microchip\xc8\v2.41\pic\sources\c99\common\doprnt.c: 808:  w -= i;
  2994   000FE0  5177               	movf	efgtoa@i& (0+255),w,b
  2995   000FE2  5F71               	subwf	efgtoa@w& (0+255),f,b
  2996   000FE4  5178               	movf	(efgtoa@i+1)& (0+255),w,b
  2997   000FE6  5B72               	subwfb	(efgtoa@w+1)& (0+255),f,b
  2998   000FE8                     
  2999                           ; BSR set to: 0
  3000                           ;C:\Program Files\Microchip\xc8\v2.41\pic\sources\c99\common\doprnt.c: 811:     return (
      +                          void) pad(fp, &dbuf[n], w);
  3001   000FE8  C02E  F011         	movff	efgtoa@fp,pad@fp
  3002   000FEC  C02F  F012         	movff	efgtoa@fp+1,pad@fp+1
  3003   000FF0  0E00               	movlw	low _dbuf
  3004   000FF2  2582               	addwf	efgtoa@n& (0+255),w,b
  3005   000FF4  6E13               	movwf	pad@buf^0,c
  3006   000FF6  0E01               	movlw	high _dbuf
  3007   000FF8  2183               	addwfc	(efgtoa@n+1)& (0+255),w,b
  3008   000FFA  6E14               	movwf	(pad@buf+1)^0,c
  3009   000FFC  C071  F015         	movff	efgtoa@w,pad@p
  3010   001000  C072  F016         	movff	efgtoa@w+1,pad@p+1
  3011   001004  EC4A  F013         	call	_pad	;wreg free
  3012   001008                     l888:
  3013   001008  0012               	return		;funcret
  3014   00100A                     __end_of_efgtoa:
  3015                           	callstack 0
  3016                           
  3017 ;; *************** function _strcpy *****************
  3018 ;; Defined at:
  3019 ;;		line 3 in file "C:\Program Files\Microchip\xc8\v2.41\pic\sources\c99\common\strcpy.c"
  3020 ;; Parameters:    Size  Location     Type
  3021 ;;  dest            2    0[COMRAM] PTR unsigned char 
  3022 ;;		 -> dbuf(80), 
  3023 ;;  src             2    2[COMRAM] PTR const unsigned char 
  3024 ;;		 -> STR_5(4), STR_2(4), 
  3025 ;; Auto vars:     Size  Location     Type
  3026 ;;  d               2    6[COMRAM] PTR unsigned char 
  3027 ;;		 -> dbuf(80), 
  3028 ;;  s               2    4[COMRAM] PTR const unsigned char 
  3029 ;;		 -> STR_5(4), STR_2(4), 
  3030 ;; Return value:  Size  Location     Type
  3031 ;;                  2    0[COMRAM] PTR unsigned char 
  3032 ;; Registers used:
  3033 ;;		wreg, fsr2l, fsr2h, status,2, status,0, tblptrl, tblptrh, tblptru
  3034 ;; Tracked objects:
  3035 ;;		On entry : 0/0
  3036 ;;		On exit  : 0/0
  3037 ;;		Unchanged: 0/0
  3038 ;; Data sizes:     COMRAM   BANK0   BANK1   BANK2   BANK3   BANK4   BANK5
  3039 ;;      Params:         4       0       0       0       0       0       0
  3040 ;;      Locals:         4       0       0       0       0       0       0
  3041 ;;      Temps:          0       0       0       0       0       0       0
  3042 ;;      Totals:         8       0       0       0       0       0       0
  3043 ;;Total ram usage:        8 bytes
  3044 ;; Hardware stack levels used: 1
  3045 ;; This function calls:
  3046 ;;		Nothing
  3047 ;; This function is called by:
  3048 ;;		_efgtoa
  3049 ;; This function uses a non-reentrant model
  3050 ;;
  3051                           
  3052                           	psect	text8
  3053   0029C8                     __ptext8:
  3054                           	callstack 0
  3055   0029C8                     _strcpy:
  3056                           	callstack 26
  3057   0029C8  C003  F005         	movff	strcpy@src,strcpy@s
  3058   0029CC  C004  F006         	movff	strcpy@src+1,strcpy@s+1
  3059   0029D0  C001  F007         	movff	strcpy@dest,strcpy@d
  3060   0029D4  C002  F008         	movff	strcpy@dest+1,strcpy@d+1
  3061   0029D8                     l2880:
  3062   0029D8  C005  FFF6         	movff	strcpy@s,tblptrl
  3063   0029DC  C006  FFF7         	movff	strcpy@s+1,tblptrh
  3064   0029E0  4A05               	infsnz	strcpy@s^0,f,c
  3065   0029E2  2A06               	incf	(strcpy@s+1)^0,f,c
  3066   0029E4                     	if	0	;tblptru may be non-zero
  3067   0029E4                     	endif
  3068   0029E4                     	if	0	;tblptru may be non-zero
  3069   0029E4                     	endif
  3070   0029E4  C007  FFD9         	movff	strcpy@d,fsr2l
  3071   0029E8  C008  FFDA         	movff	strcpy@d+1,fsr2h
  3072   0029EC  4A07               	infsnz	strcpy@d^0,f,c
  3073   0029EE  2A08               	incf	(strcpy@d+1)^0,f,c
  3074   0029F0  0008               	tblrd		*
  3075   0029F2  CFF5 FFDF          	movff	tablat,indf2
  3076   0029F6  50DF               	movf	indf2,w,c
  3077   0029F8  A4D8               	btfss	status,2,c
  3078   0029FA  EF01  F015         	goto	u2861
  3079   0029FE  EF03  F015         	goto	u2860
  3080   002A02                     u2861:
  3081   002A02  EFEC  F014         	goto	l2880
  3082   002A06                     u2860:
  3083   002A06  0012               	return		;funcret
  3084   002A08                     __end_of_strcpy:
  3085                           	callstack 0
  3086                           
  3087 ;; *************** function _pad *****************
  3088 ;; Defined at:
  3089 ;;		line 152 in file "C:\Program Files\Microchip\xc8\v2.41\pic\sources\c99\common\doprnt.c"
  3090 ;; Parameters:    Size  Location     Type
  3091 ;;  fp              2   16[COMRAM] PTR struct _IO_FILE
  3092 ;;		 -> sprintf@f(12), 
  3093 ;;  buf             2   18[COMRAM] PTR unsigned char 
  3094 ;;		 -> dbuf(80), 
  3095 ;;  p               2   20[COMRAM] int 
  3096 ;; Auto vars:     Size  Location     Type
  3097 ;;  w               2   25[COMRAM] int 
  3098 ;;  i               2   23[COMRAM] int 
  3099 ;; Return value:  Size  Location     Type
  3100 ;;                  1    wreg      void 
  3101 ;; Registers used:
  3102 ;;		wreg, fsr1l, fsr1h, fsr2l, fsr2h, status,2, status,0, cstack
  3103 ;; Tracked objects:
  3104 ;;		On entry : 0/0
  3105 ;;		On exit  : 0/0
  3106 ;;		Unchanged: 0/0
  3107 ;; Data sizes:     COMRAM   BANK0   BANK1   BANK2   BANK3   BANK4   BANK5
  3108 ;;      Params:         6       0       0       0       0       0       0
  3109 ;;      Locals:         4       0       0       0       0       0       0
  3110 ;;      Temps:          1       0       0       0       0       0       0
  3111 ;;      Totals:        11       0       0       0       0       0       0
  3112 ;;Total ram usage:       11 bytes
  3113 ;; Hardware stack levels used: 1
  3114 ;; Hardware stack levels required when called: 3
  3115 ;; This function calls:
  3116 ;;		_fputc
  3117 ;;		_fputs
  3118 ;; This function is called by:
  3119 ;;		_efgtoa
  3120 ;; This function uses a non-reentrant model
  3121 ;;
  3122                           
  3123                           	psect	text9
  3124   002694                     __ptext9:
  3125                           	callstack 0
  3126   002694                     _pad:
  3127                           	callstack 23
  3128   002694                     
  3129                           ;C:\Program Files\Microchip\xc8\v2.41\pic\sources\c99\common\doprnt.c: 152: static void 
      +                          pad(FILE *fp, char *buf, int p);C:\Program Files\Microchip\xc8\v2.41\pic\sources\c99\com
      +                          mon\doprnt.c: 153: {;C:\Program Files\Microchip\xc8\v2.41\pic\sources\c99\common\doprnt.
      +                          c: 154:     int i, w;;C:\Program Files\Microchip\xc8\v2.41\pic\sources\c99\common\doprnt
      +                          .c: 158:     if (flags & (1 << 0)) {
  3130   002694  A05E               	btfss	_flags^0,0,c
  3131   002696  EF4F  F013         	goto	u2751
  3132   00269A  EF51  F013         	goto	u2750
  3133   00269E                     u2751:
  3134   00269E  EF5B  F013         	goto	l2842
  3135   0026A2                     u2750:
  3136   0026A2                     
  3137                           ;C:\Program Files\Microchip\xc8\v2.41\pic\sources\c99\common\doprnt.c: 159:         fput
      +                          s((const char *)buf, fp);
  3138   0026A2  C013  F00A         	movff	pad@buf,fputs@s
  3139   0026A6  C014  F00B         	movff	pad@buf+1,fputs@s+1
  3140   0026AA  C011  F00C         	movff	pad@fp,fputs@fp
  3141   0026AE  C012  F00D         	movff	pad@fp+1,fputs@fp+1
  3142   0026B2  ECC2  F014         	call	_fputs	;wreg free
  3143   0026B6                     l2842:
  3144                           
  3145                           ;C:\Program Files\Microchip\xc8\v2.41\pic\sources\c99\common\doprnt.c: 164:     w = (p <
      +                           0) ? 0 : p;
  3146   0026B6  BE16               	btfsc	(pad@p+1)^0,7,c
  3147   0026B8  EF60  F013         	goto	u2761
  3148   0026BC  EF62  F013         	goto	u2760
  3149   0026C0                     u2761:
  3150   0026C0  EF68  F013         	goto	l2846
  3151   0026C4                     u2760:
  3152   0026C4  C015  F01A         	movff	pad@p,pad@w
  3153   0026C8  C016  F01B         	movff	pad@p+1,pad@w+1
  3154   0026CC  EF6C  F013         	goto	l872
  3155   0026D0                     l2846:
  3156   0026D0  0E00               	movlw	0
  3157   0026D2  6E1B               	movwf	(pad@w+1)^0,c
  3158   0026D4  0E00               	movlw	0
  3159   0026D6  6E1A               	movwf	pad@w^0,c
  3160   0026D8                     l872:
  3161                           
  3162                           ;C:\Program Files\Microchip\xc8\v2.41\pic\sources\c99\common\doprnt.c: 165:     i = 0;
  3163   0026D8  0E00               	movlw	0
  3164   0026DA  6E19               	movwf	(pad@i+1)^0,c
  3165   0026DC  0E00               	movlw	0
  3166   0026DE  6E18               	movwf	pad@i^0,c
  3167                           
  3168                           ;C:\Program Files\Microchip\xc8\v2.41\pic\sources\c99\common\doprnt.c: 166:     while (i
      +                           < w) {
  3169   0026E0  EF7E  F013         	goto	l2852
  3170   0026E4                     l2848:
  3171                           
  3172                           ;C:\Program Files\Microchip\xc8\v2.41\pic\sources\c99\common\doprnt.c: 167:         fput
      +                          c(' ', fp);
  3173   0026E4  0E00               	movlw	0
  3174   0026E6  6E02               	movwf	(fputc@c+1)^0,c
  3175   0026E8  0E20               	movlw	32
  3176   0026EA  6E01               	movwf	fputc@c^0,c
  3177   0026EC  C011  F003         	movff	pad@fp,fputc@fp
  3178   0026F0  C012  F004         	movff	pad@fp+1,fputc@fp+1
  3179   0026F4  EC82  F012         	call	_fputc	;wreg free
  3180   0026F8                     
  3181                           ;C:\Program Files\Microchip\xc8\v2.41\pic\sources\c99\common\doprnt.c: 168:         ++i;
  3182   0026F8  4A18               	infsnz	pad@i^0,f,c
  3183   0026FA  2A19               	incf	(pad@i+1)^0,f,c
  3184   0026FC                     l2852:
  3185                           
  3186                           ;C:\Program Files\Microchip\xc8\v2.41\pic\sources\c99\common\doprnt.c: 166:     while (i
      +                           < w) {
  3187   0026FC  501A               	movf	pad@w^0,w,c
  3188   0026FE  5C18               	subwf	pad@i^0,w,c
  3189   002700  5019               	movf	(pad@i+1)^0,w,c
  3190   002702  0A80               	xorlw	128
  3191   002704  6E17               	movwf	??_pad^0,c
  3192   002706  501B               	movf	(pad@w+1)^0,w,c
  3193   002708  0A80               	xorlw	128
  3194   00270A  5817               	subwfb	??_pad^0,w,c
  3195   00270C  A0D8               	btfss	status,0,c
  3196   00270E  EF8B  F013         	goto	u2771
  3197   002712  EF8D  F013         	goto	u2770
  3198   002716                     u2771:
  3199   002716  EF72  F013         	goto	l2848
  3200   00271A                     u2770:
  3201   00271A                     
  3202                           ;C:\Program Files\Microchip\xc8\v2.41\pic\sources\c99\common\doprnt.c: 173:     if (!(fl
      +                          ags & (1 << 0))) {
  3203   00271A  B05E               	btfsc	_flags^0,0,c
  3204   00271C  EF92  F013         	goto	u2781
  3205   002720  EF94  F013         	goto	u2780
  3206   002724                     u2781:
  3207   002724  EF9E  F013         	goto	l877
  3208   002728                     u2780:
  3209   002728                     
  3210                           ;C:\Program Files\Microchip\xc8\v2.41\pic\sources\c99\common\doprnt.c: 175:         fput
      +                          s((const char *)buf, fp);
  3211   002728  C013  F00A         	movff	pad@buf,fputs@s
  3212   00272C  C014  F00B         	movff	pad@buf+1,fputs@s+1
  3213   002730  C011  F00C         	movff	pad@fp,fputs@fp
  3214   002734  C012  F00D         	movff	pad@fp+1,fputs@fp+1
  3215   002738  ECC2  F014         	call	_fputs	;wreg free
  3216   00273C                     l877:
  3217   00273C  0012               	return		;funcret
  3218   00273E                     __end_of_pad:
  3219                           	callstack 0
  3220                           
  3221 ;; *************** function _fputs *****************
  3222 ;; Defined at:
  3223 ;;		line 8 in file "C:\Program Files\Microchip\xc8\v2.41\pic\sources\c99\common\nf_fputs.c"
  3224 ;; Parameters:    Size  Location     Type
  3225 ;;  s               2    9[COMRAM] PTR const unsigned char 
  3226 ;;		 -> dbuf(80), 
  3227 ;;  fp              2   11[COMRAM] PTR struct _IO_FILE
  3228 ;;		 -> sprintf@f(12), 
  3229 ;; Auto vars:     Size  Location     Type
  3230 ;;  i               2   14[COMRAM] int 
  3231 ;;  c               1   13[COMRAM] unsigned char 
  3232 ;; Return value:  Size  Location     Type
  3233 ;;                  2    9[COMRAM] int 
  3234 ;; Registers used:
  3235 ;;		wreg, fsr1l, fsr1h, fsr2l, fsr2h, status,2, status,0, cstack
  3236 ;; Tracked objects:
  3237 ;;		On entry : 0/0
  3238 ;;		On exit  : 0/0
  3239 ;;		Unchanged: 0/0
  3240 ;; Data sizes:     COMRAM   BANK0   BANK1   BANK2   BANK3   BANK4   BANK5
  3241 ;;      Params:         4       0       0       0       0       0       0
  3242 ;;      Locals:         3       0       0       0       0       0       0
  3243 ;;      Temps:          0       0       0       0       0       0       0
  3244 ;;      Totals:         7       0       0       0       0       0       0
  3245 ;;Total ram usage:        7 bytes
  3246 ;; Hardware stack levels used: 1
  3247 ;; Hardware stack levels required when called: 2
  3248 ;; This function calls:
  3249 ;;		_fputc
  3250 ;; This function is called by:
  3251 ;;		_pad
  3252 ;; This function uses a non-reentrant model
  3253 ;;
  3254                           
  3255                           	psect	text10
  3256   002984                     __ptext10:
  3257                           	callstack 0
  3258   002984                     _fputs:
  3259                           	callstack 23
  3260   002984  0E00               	movlw	0
  3261   002986  6E10               	movwf	(fputs@i+1)^0,c
  3262   002988  0E00               	movlw	0
  3263   00298A  6E0F               	movwf	fputs@i^0,c
  3264   00298C  EFD3  F014         	goto	l2466
  3265   002990                     l2462:
  3266   002990  C00E  F001         	movff	fputs@c,fputc@c
  3267   002994  6A02               	clrf	(fputc@c+1)^0,c
  3268   002996  C00C  F003         	movff	fputs@fp,fputc@fp
  3269   00299A  C00D  F004         	movff	fputs@fp+1,fputc@fp+1
  3270   00299E  EC82  F012         	call	_fputc	;wreg free
  3271   0029A2  4A0F               	infsnz	fputs@i^0,f,c
  3272   0029A4  2A10               	incf	(fputs@i+1)^0,f,c
  3273   0029A6                     l2466:
  3274   0029A6  500F               	movf	fputs@i^0,w,c
  3275   0029A8  240A               	addwf	fputs@s^0,w,c
  3276   0029AA  6ED9               	movwf	fsr2l,c
  3277   0029AC  5010               	movf	(fputs@i+1)^0,w,c
  3278   0029AE  200B               	addwfc	(fputs@s+1)^0,w,c
  3279   0029B0  6EDA               	movwf	fsr2h,c
  3280   0029B2  50DF               	movf	indf2,w,c
  3281   0029B4  6E0E               	movwf	fputs@c^0,c
  3282   0029B6  500E               	movf	fputs@c^0,w,c
  3283   0029B8  A4D8               	btfss	status,2,c
  3284   0029BA  EFE1  F014         	goto	u2161
  3285   0029BE  EFE3  F014         	goto	u2160
  3286   0029C2                     u2161:
  3287   0029C2  EFC8  F014         	goto	l2462
  3288   0029C6                     u2160:
  3289   0029C6  0012               	return		;funcret
  3290   0029C8                     __end_of_fputs:
  3291                           	callstack 0
  3292                           
  3293 ;; *************** function _fputc *****************
  3294 ;; Defined at:
  3295 ;;		line 8 in file "C:\Program Files\Microchip\xc8\v2.41\pic\sources\c99\common\nf_fputc.c"
  3296 ;; Parameters:    Size  Location     Type
  3297 ;;  c               2    0[COMRAM] int 
  3298 ;;  fp              2    2[COMRAM] PTR struct _IO_FILE
  3299 ;;		 -> sprintf@f(12), 
  3300 ;; Auto vars:     Size  Location     Type
  3301 ;;		None
  3302 ;; Return value:  Size  Location     Type
  3303 ;;                  2    0[COMRAM] int 
  3304 ;; Registers used:
  3305 ;;		wreg, fsr1l, fsr1h, fsr2l, fsr2h, status,2, status,0, cstack
  3306 ;; Tracked objects:
  3307 ;;		On entry : 0/0
  3308 ;;		On exit  : 0/0
  3309 ;;		Unchanged: 0/0
  3310 ;; Data sizes:     COMRAM   BANK0   BANK1   BANK2   BANK3   BANK4   BANK5
  3311 ;;      Params:         4       0       0       0       0       0       0
  3312 ;;      Locals:         0       0       0       0       0       0       0
  3313 ;;      Temps:          5       0       0       0       0       0       0
  3314 ;;      Totals:         9       0       0       0       0       0       0
  3315 ;;Total ram usage:        9 bytes
  3316 ;; Hardware stack levels used: 1
  3317 ;; Hardware stack levels required when called: 1
  3318 ;; This function calls:
  3319 ;;		_putch
  3320 ;; This function is called by:
  3321 ;;		_pad
  3322 ;;		_vfpfcnvrt
  3323 ;;		_fputs
  3324 ;; This function uses a non-reentrant model
  3325 ;;
  3326                           
  3327                           	psect	text11
  3328   002504                     __ptext11:
  3329                           	callstack 0
  3330   002504                     _fputc:
  3331                           	callstack 26
  3332   002504  5003               	movf	fputc@fp^0,w,c
  3333   002506  1004               	iorwf	(fputc@fp+1)^0,w,c
  3334   002508  B4D8               	btfsc	status,2,c
  3335   00250A  EF89  F012         	goto	u1731
  3336   00250E  EF8B  F012         	goto	u1730
  3337   002512                     u1731:
  3338   002512  EF94  F012         	goto	l2248
  3339   002516                     u1730:
  3340   002516  5003               	movf	fputc@fp^0,w,c
  3341   002518  1004               	iorwf	(fputc@fp+1)^0,w,c
  3342   00251A  A4D8               	btfss	status,2,c
  3343   00251C  EF92  F012         	goto	u1741
  3344   002520  EF94  F012         	goto	u1740
  3345   002524                     u1741:
  3346   002524  EF99  F012         	goto	l2250
  3347   002528                     u1740:
  3348   002528                     l2248:
  3349   002528  5001               	movf	fputc@c^0,w,c
  3350   00252A  ECC1  F015         	call	_putch
  3351   00252E  EFE6  F012         	goto	l1013
  3352   002532                     l2250:
  3353   002532  EE20 F00A          	lfsr	2,10
  3354   002536  5003               	movf	fputc@fp^0,w,c
  3355   002538  26D9               	addwf	fsr2l,f,c
  3356   00253A  5004               	movf	(fputc@fp+1)^0,w,c
  3357   00253C  22DA               	addwfc	fsr2h,f,c
  3358   00253E  50DE               	movf	postinc2,w,c
  3359   002540  10DE               	iorwf	postinc2,w,c
  3360   002542  B4D8               	btfsc	status,2,c
  3361   002544  EFA6  F012         	goto	u1751
  3362   002548  EFA8  F012         	goto	u1750
  3363   00254C                     u1751:
  3364   00254C  EFC3  F012         	goto	l2254
  3365   002550                     u1750:
  3366   002550  EE20 F00A          	lfsr	2,10
  3367   002554  5003               	movf	fputc@fp^0,w,c
  3368   002556  26D9               	addwf	fsr2l,f,c
  3369   002558  5004               	movf	(fputc@fp+1)^0,w,c
  3370   00255A  22DA               	addwfc	fsr2h,f,c
  3371   00255C  EE10 F003          	lfsr	1,3
  3372   002560  5003               	movf	fputc@fp^0,w,c
  3373   002562  26E1               	addwf	fsr1l,f,c
  3374   002564  5004               	movf	(fputc@fp+1)^0,w,c
  3375   002566  22E2               	addwfc	fsr1h,f,c
  3376   002568  50DE               	movf	postinc2,w,c
  3377   00256A  5CE6               	subwf	postinc1,w,c
  3378   00256C  50E6               	movf	postinc1,w,c
  3379   00256E  0A80               	xorlw	128
  3380   002570  6E09               	movwf	(??_fputc+4)^0,c
  3381   002572  50DE               	movf	postinc2,w,c
  3382   002574  0A80               	xorlw	128
  3383   002576  5809               	subwfb	(??_fputc+4)^0,w,c
  3384   002578  B0D8               	btfsc	status,0,c
  3385   00257A  EFC1  F012         	goto	u1761
  3386   00257E  EFC3  F012         	goto	u1760
  3387   002582                     u1761:
  3388   002582  EFE6  F012         	goto	l1013
  3389   002586                     u1760:
  3390   002586                     l2254:
  3391   002586  EE20 F003          	lfsr	2,3
  3392   00258A  5003               	movf	fputc@fp^0,w,c
  3393   00258C  26D9               	addwf	fsr2l,f,c
  3394   00258E  5004               	movf	(fputc@fp+1)^0,w,c
  3395   002590  22DA               	addwfc	fsr2h,f,c
  3396   002592  CFDE F005          	movff	postinc2,??_fputc
  3397   002596  CFDD F006          	movff	postdec2,??_fputc+1
  3398   00259A  C003  FFD9         	movff	fputc@fp,fsr2l
  3399   00259E  C004  FFDA         	movff	fputc@fp+1,fsr2h
  3400   0025A2  CFDE F007          	movff	postinc2,??_fputc+2
  3401   0025A6  CFDD F008          	movff	postdec2,??_fputc+3
  3402   0025AA  5005               	movf	??_fputc^0,w,c
  3403   0025AC  2407               	addwf	(??_fputc+2)^0,w,c
  3404   0025AE  6ED9               	movwf	fsr2l,c
  3405   0025B0  5006               	movf	(??_fputc+1)^0,w,c
  3406   0025B2  2008               	addwfc	(??_fputc+3)^0,w,c
  3407   0025B4  6EDA               	movwf	fsr2h,c
  3408   0025B6  C001  FFDF         	movff	fputc@c,indf2
  3409   0025BA  EE20 F003          	lfsr	2,3
  3410   0025BE  5003               	movf	fputc@fp^0,w,c
  3411   0025C0  26D9               	addwf	fsr2l,f,c
  3412   0025C2  5004               	movf	(fputc@fp+1)^0,w,c
  3413   0025C4  22DA               	addwfc	fsr2h,f,c
  3414   0025C6  2ADE               	incf	postinc2,f,c
  3415   0025C8  0E00               	movlw	0
  3416   0025CA  22DD               	addwfc	postdec2,f,c
  3417   0025CC                     l1013:
  3418   0025CC  0012               	return		;funcret
  3419   0025CE                     __end_of_fputc:
  3420                           	callstack 0
  3421                           
  3422 ;; *************** function _putch *****************
  3423 ;; Defined at:
  3424 ;;		line 7 in file "C:\Program Files\Microchip\xc8\v2.41\pic\sources\c99\common\putch.c"
  3425 ;; Parameters:    Size  Location     Type
  3426 ;;  c               1    wreg     unsigned char 
  3427 ;; Auto vars:     Size  Location     Type
  3428 ;;  c               1    0[COMRAM] unsigned char 
  3429 ;; Return value:  Size  Location     Type
  3430 ;;                  1    wreg      void 
  3431 ;; Registers used:
  3432 ;;		wreg
  3433 ;; Tracked objects:
  3434 ;;		On entry : 0/0
  3435 ;;		On exit  : 0/0
  3436 ;;		Unchanged: 0/0
  3437 ;; Data sizes:     COMRAM   BANK0   BANK1   BANK2   BANK3   BANK4   BANK5
  3438 ;;      Params:         0       0       0       0       0       0       0
  3439 ;;      Locals:         0       0       0       0       0       0       0
  3440 ;;      Temps:          0       0       0       0       0       0       0
  3441 ;;      Totals:         0       0       0       0       0       0       0
  3442 ;;Total ram usage:        0 bytes
  3443 ;; Hardware stack levels used: 1
  3444 ;; This function calls:
  3445 ;;		Nothing
  3446 ;; This function is called by:
  3447 ;;		_fputc
  3448 ;; This function uses a non-reentrant model
  3449 ;;
  3450                           
  3451                           	psect	text12
  3452   002B82                     __ptext12:
  3453                           	callstack 0
  3454   002B82                     _putch:
  3455                           	callstack 26
  3456   002B82  0012               	return		;funcret
  3457   002B84                     __end_of_putch:
  3458                           	callstack 0
  3459                           
  3460 ;; *************** function _memcpy *****************
  3461 ;; Defined at:
  3462 ;;		line 4 in file "C:\Program Files\Microchip\xc8\v2.41\pic\sources\c99\common\memcpy.c"
  3463 ;; Parameters:    Size  Location     Type
  3464 ;;  d1              2    0[COMRAM] PTR void 
  3465 ;;		 -> dbuf(80), 
  3466 ;;  s1              2    2[COMRAM] PTR const void 
  3467 ;;		 -> dbuf(80), 
  3468 ;;  n               2    4[COMRAM] unsigned int 
  3469 ;; Auto vars:     Size  Location     Type
  3470 ;;  s               2    8[COMRAM] PTR const unsigned char 
  3471 ;;		 -> dbuf(80), 
  3472 ;;  d               2    6[COMRAM] PTR unsigned char 
  3473 ;;		 -> dbuf(80), 
  3474 ;;  tmp             1   10[COMRAM] unsigned char 
  3475 ;; Return value:  Size  Location     Type
  3476 ;;                  2    0[COMRAM] PTR void 
  3477 ;; Registers used:
  3478 ;;		wreg, fsr2l, fsr2h, status,2, status,0
  3479 ;; Tracked objects:
  3480 ;;		On entry : 0/0
  3481 ;;		On exit  : 0/0
  3482 ;;		Unchanged: 0/0
  3483 ;; Data sizes:     COMRAM   BANK0   BANK1   BANK2   BANK3   BANK4   BANK5
  3484 ;;      Params:         6       0       0       0       0       0       0
  3485 ;;      Locals:         5       0       0       0       0       0       0
  3486 ;;      Temps:          0       0       0       0       0       0       0
  3487 ;;      Totals:        11       0       0       0       0       0       0
  3488 ;;Total ram usage:       11 bytes
  3489 ;; Hardware stack levels used: 1
  3490 ;; This function calls:
  3491 ;;		Nothing
  3492 ;; This function is called by:
  3493 ;;		_efgtoa
  3494 ;; This function uses a non-reentrant model
  3495 ;;
  3496                           
  3497                           	psect	text13
  3498   0028EE                     __ptext13:
  3499                           	callstack 0
  3500   0028EE                     _memcpy:
  3501                           	callstack 26
  3502   0028EE  C003  F009         	movff	memcpy@s1,memcpy@s
  3503   0028F2  C004  F00A         	movff	memcpy@s1+1,memcpy@s+1
  3504   0028F6  C001  F007         	movff	memcpy@d1,memcpy@d
  3505   0028FA  C002  F008         	movff	memcpy@d1+1,memcpy@d+1
  3506   0028FE  EF91  F014         	goto	l2924
  3507   002902                     l2916:
  3508   002902  C009  FFD9         	movff	memcpy@s,fsr2l
  3509   002906  C00A  FFDA         	movff	memcpy@s+1,fsr2h
  3510   00290A  50DF               	movf	indf2,w,c
  3511   00290C  6E0B               	movwf	memcpy@tmp^0,c
  3512   00290E  4A09               	infsnz	memcpy@s^0,f,c
  3513   002910  2A0A               	incf	(memcpy@s+1)^0,f,c
  3514   002912  C007  FFD9         	movff	memcpy@d,fsr2l
  3515   002916  C008  FFDA         	movff	memcpy@d+1,fsr2h
  3516   00291A  C00B  FFDF         	movff	memcpy@tmp,indf2
  3517   00291E  4A07               	infsnz	memcpy@d^0,f,c
  3518   002920  2A08               	incf	(memcpy@d+1)^0,f,c
  3519   002922                     l2924:
  3520   002922  0605               	decf	memcpy@n^0,f,c
  3521   002924  A0D8               	btfss	status,0,c
  3522   002926  0606               	decf	(memcpy@n+1)^0,f,c
  3523   002928  2805               	incf	memcpy@n^0,w,c
  3524   00292A  E106               	bnz	u2981
  3525   00292C  2806               	incf	(memcpy@n+1)^0,w,c
  3526   00292E  A4D8               	btfss	status,2,c
  3527   002930  EF9C  F014         	goto	u2981
  3528   002934  EF9E  F014         	goto	u2980
  3529   002938                     u2981:
  3530   002938  EF81  F014         	goto	l2916
  3531   00293C                     u2980:
  3532   00293C  0012               	return		;funcret
  3533   00293E                     __end_of_memcpy:
  3534                           	callstack 0
  3535                           
  3536 ;; *************** function _labs *****************
  3537 ;; Defined at:
  3538 ;;		line 1 in file "C:\Program Files\Microchip\xc8\v2.41\pic\sources\c99\common\labs.c"
  3539 ;; Parameters:    Size  Location     Type
  3540 ;;  a               4    0[COMRAM] long 
  3541 ;; Auto vars:     Size  Location     Type
  3542 ;;		None
  3543 ;; Return value:  Size  Location     Type
  3544 ;;                  4    0[COMRAM] long 
  3545 ;; Registers used:
  3546 ;;		wreg, status,2, status,0
  3547 ;; Tracked objects:
  3548 ;;		On entry : 0/0
  3549 ;;		On exit  : 0/0
  3550 ;;		Unchanged: 0/0
  3551 ;; Data sizes:     COMRAM   BANK0   BANK1   BANK2   BANK3   BANK4   BANK5
  3552 ;;      Params:         4       0       0       0       0       0       0
  3553 ;;      Locals:         0       0       0       0       0       0       0
  3554 ;;      Temps:          4       0       0       0       0       0       0
  3555 ;;      Totals:         8       0       0       0       0       0       0
  3556 ;;Total ram usage:        8 bytes
  3557 ;; Hardware stack levels used: 1
  3558 ;; This function calls:
  3559 ;;		Nothing
  3560 ;; This function is called by:
  3561 ;;		_efgtoa
  3562 ;; This function uses a non-reentrant model
  3563 ;;
  3564                           
  3565                           	psect	text14
  3566   0027E8                     __ptext14:
  3567                           	callstack 0
  3568   0027E8                     _labs:
  3569                           	callstack 26
  3570   0027E8  BE04               	btfsc	(labs@a+3)^0,7,c
  3571   0027EA  EF03  F014         	goto	u2870
  3572   0027EE  5004               	movf	(labs@a+3)^0,w,c
  3573   0027F0  1003               	iorwf	(labs@a+2)^0,w,c
  3574   0027F2  1002               	iorwf	(labs@a+1)^0,w,c
  3575   0027F4  E106               	bnz	u2871
  3576   0027F6  0401               	decf	labs@a^0,w,c
  3577   0027F8  B0D8               	btfsc	status,0,c
  3578   0027FA  EF01  F014         	goto	u2871
  3579   0027FE  EF03  F014         	goto	u2870
  3580   002802                     u2871:
  3581   002802  EF1E  F014         	goto	l992
  3582   002806                     u2870:
  3583   002806  C001  F005         	movff	labs@a,??_labs
  3584   00280A  C002  F006         	movff	labs@a+1,??_labs+1
  3585   00280E  C003  F007         	movff	labs@a+2,??_labs+2
  3586   002812  C004  F008         	movff	labs@a+3,??_labs+3
  3587   002816  1E05               	comf	??_labs^0,f,c
  3588   002818  1E06               	comf	(??_labs+1)^0,f,c
  3589   00281A  1E07               	comf	(??_labs+2)^0,f,c
  3590   00281C  1E08               	comf	(??_labs+3)^0,f,c
  3591   00281E  2A05               	incf	??_labs^0,f,c
  3592   002820  0E00               	movlw	0
  3593   002822  2206               	addwfc	(??_labs+1)^0,f,c
  3594   002824  2207               	addwfc	(??_labs+2)^0,f,c
  3595   002826  2208               	addwfc	(??_labs+3)^0,f,c
  3596   002828  C005  F001         	movff	??_labs,?_labs
  3597   00282C  C006  F002         	movff	??_labs+1,?_labs+1
  3598   002830  C007  F003         	movff	??_labs+2,?_labs+2
  3599   002834  C008  F004         	movff	??_labs+3,?_labs+3
  3600   002838  EF26  F014         	goto	l995
  3601   00283C                     l992:
  3602   00283C  C001  F001         	movff	labs@a,?_labs
  3603   002840  C002  F002         	movff	labs@a+1,?_labs+1
  3604   002844  C003  F003         	movff	labs@a+2,?_labs+2
  3605   002848  C004  F004         	movff	labs@a+3,?_labs+3
  3606   00284C                     l995:
  3607   00284C  0012               	return		;funcret
  3608   00284E                     __end_of_labs:
  3609                           	callstack 0
  3610                           
  3611 ;; *************** function _floorf *****************
  3612 ;; Defined at:
  3613 ;;		line 3 in file "C:\Program Files\Microchip\xc8\v2.41\pic\sources\c99\common\floorf.c"
  3614 ;; Parameters:    Size  Location     Type
  3615 ;;  x               4   25[COMRAM] float 
  3616 ;; Auto vars:     Size  Location     Type
  3617 ;;  u               4   41[COMRAM] struct .
  3618 ;;  m               4   35[COMRAM] unsigned long 
  3619 ;;  e               2   39[COMRAM] int 
  3620 ;; Return value:  Size  Location     Type
  3621 ;;                  4   25[COMRAM] float 
  3622 ;; Registers used:
  3623 ;;		wreg, status,2, status,0
  3624 ;; Tracked objects:
  3625 ;;		On entry : 0/0
  3626 ;;		On exit  : 0/0
  3627 ;;		Unchanged: 0/0
  3628 ;; Data sizes:     COMRAM   BANK0   BANK1   BANK2   BANK3   BANK4   BANK5
  3629 ;;      Params:         4       0       0       0       0       0       0
  3630 ;;      Locals:        10       0       0       0       0       0       0
  3631 ;;      Temps:          6       0       0       0       0       0       0
  3632 ;;      Totals:        20       0       0       0       0       0       0
  3633 ;;Total ram usage:       20 bytes
  3634 ;; Hardware stack levels used: 1
  3635 ;; This function calls:
  3636 ;;		Nothing
  3637 ;; This function is called by:
  3638 ;;		_efgtoa
  3639 ;; This function uses a non-reentrant model
  3640 ;;
  3641                           
  3642                           	psect	text15
  3643   001ED8                     __ptext15:
  3644                           	callstack 0
  3645   001ED8                     _floorf:
  3646                           	callstack 26
  3647   001ED8  C0D8  F02A         	movff	floorf@F526,floorf@u
  3648   001EDC  C0D9  F02B         	movff	floorf@F526+1,floorf@u+1
  3649   001EE0  C0DA  F02C         	movff	floorf@F526+2,floorf@u+2
  3650   001EE4  C0DB  F02D         	movff	floorf@F526+3,floorf@u+3
  3651   001EE8  C01A  F02A         	movff	floorf@x,floorf@u
  3652   001EEC  C01B  F02B         	movff	floorf@x+1,floorf@u+1
  3653   001EF0  C01C  F02C         	movff	floorf@x+2,floorf@u+2
  3654   001EF4  C01D  F02D         	movff	floorf@x+3,floorf@u+3
  3655   001EF8  0E81               	movlw	129
  3656   001EFA  6E1E               	movwf	??_floorf^0,c
  3657   001EFC  0EFF               	movlw	255
  3658   001EFE  6E1F               	movwf	(??_floorf+1)^0,c
  3659   001F00  C02A  F020         	movff	floorf@u,??_floorf+2
  3660   001F04  C02B  F021         	movff	floorf@u+1,??_floorf+3
  3661   001F08  C02C  F022         	movff	floorf@u+2,??_floorf+4
  3662   001F0C  C02D  F023         	movff	floorf@u+3,??_floorf+5
  3663   001F10  0E18               	movlw	24
  3664   001F12  EF90  F00F         	goto	u2880
  3665   001F16                     u2885:
  3666   001F16  90D8               	bcf	status,0,c
  3667   001F18  3223               	rrcf	(??_floorf+5)^0,f,c
  3668   001F1A  3222               	rrcf	(??_floorf+4)^0,f,c
  3669   001F1C  3221               	rrcf	(??_floorf+3)^0,f,c
  3670   001F1E  3220               	rrcf	(??_floorf+2)^0,f,c
  3671   001F20                     u2880:
  3672   001F20  2EE8               	decfsz	wreg,f,c
  3673   001F22  EF8B  F00F         	goto	u2885
  3674   001F26  5020               	movf	(??_floorf+2)^0,w,c
  3675   001F28  241E               	addwf	??_floorf^0,w,c
  3676   001F2A  6E28               	movwf	floorf@e^0,c
  3677   001F2C  0E00               	movlw	0
  3678   001F2E  201F               	addwfc	(??_floorf+1)^0,w,c
  3679   001F30  6E29               	movwf	(floorf@e+1)^0,c
  3680   001F32  BE29               	btfsc	(floorf@e+1)^0,7,c
  3681   001F34  EFA5  F00F         	goto	u2891
  3682   001F38  5029               	movf	(floorf@e+1)^0,w,c
  3683   001F3A  E109               	bnz	u2890
  3684   001F3C  0E17               	movlw	23
  3685   001F3E  5C28               	subwf	floorf@e^0,w,c
  3686   001F40  A0D8               	btfss	status,0,c
  3687   001F42  EFA5  F00F         	goto	u2891
  3688   001F46  EFA7  F00F         	goto	u2890
  3689   001F4A                     u2891:
  3690   001F4A  EFB1  F00F         	goto	l2892
  3691   001F4E                     u2890:
  3692   001F4E                     l2890:
  3693   001F4E  C01A  F01A         	movff	floorf@x,?_floorf
  3694   001F52  C01B  F01B         	movff	floorf@x+1,?_floorf+1
  3695   001F56  C01C  F01C         	movff	floorf@x+2,?_floorf+2
  3696   001F5A  C01D  F01D         	movff	floorf@x+3,?_floorf+3
  3697   001F5E  EF74  F010         	goto	l981
  3698   001F62                     l2892:
  3699   001F62  BE29               	btfsc	(floorf@e+1)^0,7,c
  3700   001F64  EFB6  F00F         	goto	u2901
  3701   001F68  EFB8  F00F         	goto	u2900
  3702   001F6C                     u2901:
  3703   001F6C  EF28  F010         	goto	l2902
  3704   001F70                     u2900:
  3705   001F70  C028  F01E         	movff	floorf@e,??_floorf
  3706   001F74  0EFF               	movlw	255
  3707   001F76  6E1F               	movwf	(??_floorf+1)^0,c
  3708   001F78  0EFF               	movlw	255
  3709   001F7A  6E20               	movwf	(??_floorf+2)^0,c
  3710   001F7C  0E7F               	movlw	127
  3711   001F7E  6E21               	movwf	(??_floorf+3)^0,c
  3712   001F80  0E00               	movlw	0
  3713   001F82  6E22               	movwf	(??_floorf+4)^0,c
  3714   001F84                     u2915:
  3715   001F84  661E               	tstfsz	??_floorf^0,c
  3716   001F86  EFC7  F00F         	goto	u2916
  3717   001F8A  EFCF  F00F         	goto	u2917
  3718   001F8E                     u2916:
  3719   001F8E  3422               	rlcf	(??_floorf+4)^0,w,c
  3720   001F90  3222               	rrcf	(??_floorf+4)^0,f,c
  3721   001F92  3221               	rrcf	(??_floorf+3)^0,f,c
  3722   001F94  3220               	rrcf	(??_floorf+2)^0,f,c
  3723   001F96  321F               	rrcf	(??_floorf+1)^0,f,c
  3724   001F98  2E1E               	decfsz	??_floorf^0,f,c
  3725   001F9A  EFC2  F00F         	goto	u2915
  3726   001F9E                     u2917:
  3727   001F9E  C01F  F024         	movff	??_floorf+1,floorf@m
  3728   001FA2  C020  F025         	movff	??_floorf+2,floorf@m+1
  3729   001FA6  C021  F026         	movff	??_floorf+3,floorf@m+2
  3730   001FAA  C022  F027         	movff	??_floorf+4,floorf@m+3
  3731   001FAE  5024               	movf	floorf@m^0,w,c
  3732   001FB0  142A               	andwf	floorf@u^0,w,c
  3733   001FB2  6E1E               	movwf	??_floorf^0,c
  3734   001FB4  5025               	movf	(floorf@m+1)^0,w,c
  3735   001FB6  142B               	andwf	(floorf@u+1)^0,w,c
  3736   001FB8  6E1F               	movwf	(??_floorf+1)^0,c
  3737   001FBA  5026               	movf	(floorf@m+2)^0,w,c
  3738   001FBC  142C               	andwf	(floorf@u+2)^0,w,c
  3739   001FBE  6E20               	movwf	(??_floorf+2)^0,c
  3740   001FC0  5027               	movf	(floorf@m+3)^0,w,c
  3741   001FC2  142D               	andwf	(floorf@u+3)^0,w,c
  3742   001FC4  6E21               	movwf	(??_floorf+3)^0,c
  3743   001FC6  501E               	movf	??_floorf^0,w,c
  3744   001FC8  101F               	iorwf	(??_floorf+1)^0,w,c
  3745   001FCA  1020               	iorwf	(??_floorf+2)^0,w,c
  3746   001FCC  1021               	iorwf	(??_floorf+3)^0,w,c
  3747   001FCE  A4D8               	btfss	status,2,c
  3748   001FD0  EFEC  F00F         	goto	u2921
  3749   001FD4  EFEE  F00F         	goto	u2920
  3750   001FD8                     u2921:
  3751   001FD8  EFF0  F00F         	goto	l2898
  3752   001FDC                     u2920:
  3753   001FDC  EFA7  F00F         	goto	l2890
  3754   001FE0                     l2898:
  3755   001FE0  C02A  F01E         	movff	floorf@u,??_floorf
  3756   001FE4  C02B  F01F         	movff	floorf@u+1,??_floorf+1
  3757   001FE8  C02C  F020         	movff	floorf@u+2,??_floorf+2
  3758   001FEC  C02D  F021         	movff	floorf@u+3,??_floorf+3
  3759   001FF0  0E20               	movlw	32
  3760   001FF2  EF00  F010         	goto	u2930
  3761   001FF6                     u2935:
  3762   001FF6  90D8               	bcf	status,0,c
  3763   001FF8  3221               	rrcf	(??_floorf+3)^0,f,c
  3764   001FFA  3220               	rrcf	(??_floorf+2)^0,f,c
  3765   001FFC  321F               	rrcf	(??_floorf+1)^0,f,c
  3766   001FFE  321E               	rrcf	??_floorf^0,f,c
  3767   002000                     u2930:
  3768   002000  2EE8               	decfsz	wreg,f,c
  3769   002002  EFFB  F00F         	goto	u2935
  3770   002006  501E               	movf	??_floorf^0,w,c
  3771   002008  101F               	iorwf	(??_floorf+1)^0,w,c
  3772   00200A  1020               	iorwf	(??_floorf+2)^0,w,c
  3773   00200C  1021               	iorwf	(??_floorf+3)^0,w,c
  3774   00200E  B4D8               	btfsc	status,2,c
  3775   002010  EF0C  F010         	goto	u2941
  3776   002014  EF0E  F010         	goto	u2940
  3777   002018                     u2941:
  3778   002018  EF16  F010         	goto	l984
  3779   00201C                     u2940:
  3780   00201C  5024               	movf	floorf@m^0,w,c
  3781   00201E  262A               	addwf	floorf@u^0,f,c
  3782   002020  5025               	movf	(floorf@m+1)^0,w,c
  3783   002022  222B               	addwfc	(floorf@u+1)^0,f,c
  3784   002024  5026               	movf	(floorf@m+2)^0,w,c
  3785   002026  222C               	addwfc	(floorf@u+2)^0,f,c
  3786   002028  5027               	movf	(floorf@m+3)^0,w,c
  3787   00202A  222D               	addwfc	(floorf@u+3)^0,f,c
  3788   00202C                     l984:
  3789   00202C  1C24               	comf	floorf@m^0,w,c
  3790   00202E  6E1E               	movwf	??_floorf^0,c
  3791   002030  1C25               	comf	(floorf@m+1)^0,w,c
  3792   002032  6E1F               	movwf	(??_floorf+1)^0,c
  3793   002034  1C26               	comf	(floorf@m+2)^0,w,c
  3794   002036  6E20               	movwf	(??_floorf+2)^0,c
  3795   002038  1C27               	comf	(floorf@m+3)^0,w,c
  3796   00203A  6E21               	movwf	(??_floorf+3)^0,c
  3797   00203C  501E               	movf	??_floorf^0,w,c
  3798   00203E  162A               	andwf	floorf@u^0,f,c
  3799   002040  501F               	movf	(??_floorf+1)^0,w,c
  3800   002042  162B               	andwf	(floorf@u+1)^0,f,c
  3801   002044  5020               	movf	(??_floorf+2)^0,w,c
  3802   002046  162C               	andwf	(floorf@u+2)^0,f,c
  3803   002048  5021               	movf	(??_floorf+3)^0,w,c
  3804   00204A  162D               	andwf	(floorf@u+3)^0,f,c
  3805   00204C  EF6C  F010         	goto	l2910
  3806   002050                     l2902:
  3807   002050  C02A  F01E         	movff	floorf@u,??_floorf
  3808   002054  C02B  F01F         	movff	floorf@u+1,??_floorf+1
  3809   002058  C02C  F020         	movff	floorf@u+2,??_floorf+2
  3810   00205C  C02D  F021         	movff	floorf@u+3,??_floorf+3
  3811   002060  0E20               	movlw	32
  3812   002062  EF38  F010         	goto	u2950
  3813   002066                     u2955:
  3814   002066  90D8               	bcf	status,0,c
  3815   002068  3221               	rrcf	(??_floorf+3)^0,f,c
  3816   00206A  3220               	rrcf	(??_floorf+2)^0,f,c
  3817   00206C  321F               	rrcf	(??_floorf+1)^0,f,c
  3818   00206E  321E               	rrcf	??_floorf^0,f,c
  3819   002070                     u2950:
  3820   002070  2EE8               	decfsz	wreg,f,c
  3821   002072  EF33  F010         	goto	u2955
  3822   002076  501E               	movf	??_floorf^0,w,c
  3823   002078  101F               	iorwf	(??_floorf+1)^0,w,c
  3824   00207A  1020               	iorwf	(??_floorf+2)^0,w,c
  3825   00207C  1021               	iorwf	(??_floorf+3)^0,w,c
  3826   00207E  A4D8               	btfss	status,2,c
  3827   002080  EF44  F010         	goto	u2961
  3828   002084  EF46  F010         	goto	u2960
  3829   002088                     u2961:
  3830   002088  EF50  F010         	goto	l2906
  3831   00208C                     u2960:
  3832   00208C  0E00               	movlw	0
  3833   00208E  6E2A               	movwf	floorf@u^0,c
  3834   002090  0E00               	movlw	0
  3835   002092  6E2B               	movwf	(floorf@u+1)^0,c
  3836   002094  0E00               	movlw	0
  3837   002096  6E2C               	movwf	(floorf@u+2)^0,c
  3838   002098  0E00               	movlw	0
  3839   00209A  6E2D               	movwf	(floorf@u+3)^0,c
  3840   00209C  EF6C  F010         	goto	l2910
  3841   0020A0                     l2906:
  3842   0020A0  90D8               	bcf	status,0,c
  3843   0020A2  342A               	rlcf	floorf@u^0,w,c
  3844   0020A4  6E1E               	movwf	??_floorf^0,c
  3845   0020A6  342B               	rlcf	(floorf@u+1)^0,w,c
  3846   0020A8  6E1F               	movwf	(??_floorf+1)^0,c
  3847   0020AA  342C               	rlcf	(floorf@u+2)^0,w,c
  3848   0020AC  6E20               	movwf	(??_floorf+2)^0,c
  3849   0020AE  342D               	rlcf	(floorf@u+3)^0,w,c
  3850   0020B0  6E21               	movwf	(??_floorf+3)^0,c
  3851   0020B2  501E               	movf	??_floorf^0,w,c
  3852   0020B4  101F               	iorwf	(??_floorf+1)^0,w,c
  3853   0020B6  1020               	iorwf	(??_floorf+2)^0,w,c
  3854   0020B8  1021               	iorwf	(??_floorf+3)^0,w,c
  3855   0020BA  B4D8               	btfsc	status,2,c
  3856   0020BC  EF62  F010         	goto	u2971
  3857   0020C0  EF64  F010         	goto	u2970
  3858   0020C4                     u2971:
  3859   0020C4  EF6C  F010         	goto	l2910
  3860   0020C8                     u2970:
  3861   0020C8  0E00               	movlw	0
  3862   0020CA  6E2A               	movwf	floorf@u^0,c
  3863   0020CC  0E00               	movlw	0
  3864   0020CE  6E2B               	movwf	(floorf@u+1)^0,c
  3865   0020D0  0E80               	movlw	128
  3866   0020D2  6E2C               	movwf	(floorf@u+2)^0,c
  3867   0020D4  0EBF               	movlw	191
  3868   0020D6  6E2D               	movwf	(floorf@u+3)^0,c
  3869   0020D8                     l2910:
  3870   0020D8  C02A  F01A         	movff	floorf@u,?_floorf
  3871   0020DC  C02B  F01B         	movff	floorf@u+1,?_floorf+1
  3872   0020E0  C02C  F01C         	movff	floorf@u+2,?_floorf+2
  3873   0020E4  C02D  F01D         	movff	floorf@u+3,?_floorf+3
  3874   0020E8                     l981:
  3875   0020E8  0012               	return		;funcret
  3876   0020EA                     __end_of_floorf:
  3877                           	callstack 0
  3878                           
  3879 ;; *************** function ___fpclassifyf *****************
  3880 ;; Defined at:
  3881 ;;		line 4 in file "C:\Program Files\Microchip\xc8\v2.41\pic\sources\c99\common\__fpclassifyf.c"
  3882 ;; Parameters:    Size  Location     Type
  3883 ;;  x               4    0[COMRAM] float 
  3884 ;; Auto vars:     Size  Location     Type
  3885 ;;  u               4   10[COMRAM] struct .
  3886 ;;  e               2    8[COMRAM] int 
  3887 ;; Return value:  Size  Location     Type
  3888 ;;                  2    0[COMRAM] int 
  3889 ;; Registers used:
  3890 ;;		wreg, status,2, status,0
  3891 ;; Tracked objects:
  3892 ;;		On entry : 0/0
  3893 ;;		On exit  : 0/0
  3894 ;;		Unchanged: 0/0
  3895 ;; Data sizes:     COMRAM   BANK0   BANK1   BANK2   BANK3   BANK4   BANK5
  3896 ;;      Params:         4       0       0       0       0       0       0
  3897 ;;      Locals:         6       0       0       0       0       0       0
  3898 ;;      Temps:          4       0       0       0       0       0       0
  3899 ;;      Totals:        14       0       0       0       0       0       0
  3900 ;;Total ram usage:       14 bytes
  3901 ;; Hardware stack levels used: 1
  3902 ;; This function calls:
  3903 ;;		Nothing
  3904 ;; This function is called by:
  3905 ;;		_efgtoa
  3906 ;; This function uses a non-reentrant model
  3907 ;;
  3908                           
  3909                           	psect	text16
  3910   002406                     __ptext16:
  3911                           	callstack 0
  3912   002406                     ___fpclassifyf:
  3913                           	callstack 26
  3914   002406  C056  F00B         	movff	___fpclassifyf@F465,___fpclassifyf@u
  3915   00240A  C057  F00C         	movff	___fpclassifyf@F465+1,___fpclassifyf@u+1
  3916   00240E  C058  F00D         	movff	___fpclassifyf@F465+2,___fpclassifyf@u+2
  3917   002412  C059  F00E         	movff	___fpclassifyf@F465+3,___fpclassifyf@u+3
  3918   002416  C001  F00B         	movff	___fpclassifyf@x,___fpclassifyf@u
  3919   00241A  C002  F00C         	movff	___fpclassifyf@x+1,___fpclassifyf@u+1
  3920   00241E  C003  F00D         	movff	___fpclassifyf@x+2,___fpclassifyf@u+2
  3921   002422  C004  F00E         	movff	___fpclassifyf@x+3,___fpclassifyf@u+3
  3922   002426  C00B  F005         	movff	___fpclassifyf@u,??___fpclassifyf
  3923   00242A  C00C  F006         	movff	___fpclassifyf@u+1,??___fpclassifyf+1
  3924   00242E  C00D  F007         	movff	___fpclassifyf@u+2,??___fpclassifyf+2
  3925   002432  C00E  F008         	movff	___fpclassifyf@u+3,??___fpclassifyf+3
  3926   002436  0E18               	movlw	24
  3927   002438  EF23  F012         	goto	u2790
  3928   00243C                     u2795:
  3929   00243C  90D8               	bcf	status,0,c
  3930   00243E  3208               	rrcf	(??___fpclassifyf+3)^0,f,c
  3931   002440  3207               	rrcf	(??___fpclassifyf+2)^0,f,c
  3932   002442  3206               	rrcf	(??___fpclassifyf+1)^0,f,c
  3933   002444  3205               	rrcf	??___fpclassifyf^0,f,c
  3934   002446                     u2790:
  3935   002446  2EE8               	decfsz	wreg,f,c
  3936   002448  EF1E  F012         	goto	u2795
  3937   00244C  5005               	movf	??___fpclassifyf^0,w,c
  3938   00244E  6E09               	movwf	___fpclassifyf@e^0,c
  3939   002450  6A0A               	clrf	(___fpclassifyf@e+1)^0,c
  3940   002452  5009               	movf	___fpclassifyf@e^0,w,c
  3941   002454  100A               	iorwf	(___fpclassifyf@e+1)^0,w,c
  3942   002456  A4D8               	btfss	status,2,c
  3943   002458  EF30  F012         	goto	u2801
  3944   00245C  EF32  F012         	goto	u2800
  3945   002460                     u2801:
  3946   002460  EF52  F012         	goto	l2868
  3947   002464                     u2800:
  3948   002464  90D8               	bcf	status,0,c
  3949   002466  340B               	rlcf	___fpclassifyf@u^0,w,c
  3950   002468  6E05               	movwf	??___fpclassifyf^0,c
  3951   00246A  340C               	rlcf	(___fpclassifyf@u+1)^0,w,c
  3952   00246C  6E06               	movwf	(??___fpclassifyf+1)^0,c
  3953   00246E  340D               	rlcf	(___fpclassifyf@u+2)^0,w,c
  3954   002470  6E07               	movwf	(??___fpclassifyf+2)^0,c
  3955   002472  340E               	rlcf	(___fpclassifyf@u+3)^0,w,c
  3956   002474  6E08               	movwf	(??___fpclassifyf+3)^0,c
  3957   002476  5005               	movf	??___fpclassifyf^0,w,c
  3958   002478  1006               	iorwf	(??___fpclassifyf+1)^0,w,c
  3959   00247A  1007               	iorwf	(??___fpclassifyf+2)^0,w,c
  3960   00247C  1008               	iorwf	(??___fpclassifyf+3)^0,w,c
  3961   00247E  A4D8               	btfss	status,2,c
  3962   002480  EF44  F012         	goto	u2811
  3963   002484  EF46  F012         	goto	u2810
  3964   002488                     u2811:
  3965   002488  EF4C  F012         	goto	l2864
  3966   00248C                     u2810:
  3967   00248C  0E00               	movlw	0
  3968   00248E  6E02               	movwf	(?___fpclassifyf+1)^0,c
  3969   002490  0E02               	movlw	2
  3970   002492  6E01               	movwf	?___fpclassifyf^0,c
  3971   002494  EF81  F012         	goto	l974
  3972   002498                     l2864:
  3973   002498  0E00               	movlw	0
  3974   00249A  6E02               	movwf	(?___fpclassifyf+1)^0,c
  3975   00249C  0E03               	movlw	3
  3976   00249E  6E01               	movwf	?___fpclassifyf^0,c
  3977   0024A0  EF81  F012         	goto	l974
  3978   0024A4                     l2868:
  3979   0024A4  2809               	incf	___fpclassifyf@e^0,w,c
  3980   0024A6  100A               	iorwf	(___fpclassifyf@e+1)^0,w,c
  3981   0024A8  A4D8               	btfss	status,2,c
  3982   0024AA  EF59  F012         	goto	u2821
  3983   0024AE  EF5B  F012         	goto	u2820
  3984   0024B2                     u2821:
  3985   0024B2  EF7D  F012         	goto	l2874
  3986   0024B6                     u2820:
  3987   0024B6  C00B  F005         	movff	___fpclassifyf@u,??___fpclassifyf
  3988   0024BA  C00C  F006         	movff	___fpclassifyf@u+1,??___fpclassifyf+1
  3989   0024BE  C00D  F007         	movff	___fpclassifyf@u+2,??___fpclassifyf+2
  3990   0024C2  C00E  F008         	movff	___fpclassifyf@u+3,??___fpclassifyf+3
  3991   0024C6  0E09               	movlw	9
  3992   0024C8                     u2835:
  3993   0024C8  90D8               	bcf	status,0,c
  3994   0024CA  3605               	rlcf	??___fpclassifyf^0,f,c
  3995   0024CC  3606               	rlcf	(??___fpclassifyf+1)^0,f,c
  3996   0024CE  3607               	rlcf	(??___fpclassifyf+2)^0,f,c
  3997   0024D0  3608               	rlcf	(??___fpclassifyf+3)^0,f,c
  3998   0024D2  2EE8               	decfsz	wreg,f,c
  3999   0024D4  EF64  F012         	goto	u2835
  4000   0024D8  5005               	movf	??___fpclassifyf^0,w,c
  4001   0024DA  1006               	iorwf	(??___fpclassifyf+1)^0,w,c
  4002   0024DC  1007               	iorwf	(??___fpclassifyf+2)^0,w,c
  4003   0024DE  1008               	iorwf	(??___fpclassifyf+3)^0,w,c
  4004   0024E0  B4D8               	btfsc	status,2,c
  4005   0024E2  EF75  F012         	goto	u2841
  4006   0024E6  EF78  F012         	goto	u2840
  4007   0024EA                     u2841:
  4008   0024EA  0E01               	movlw	1
  4009   0024EC  EF79  F012         	goto	u2850
  4010   0024F0                     u2840:
  4011   0024F0  0E00               	movlw	0
  4012   0024F2                     u2850:
  4013   0024F2  6E01               	movwf	?___fpclassifyf^0,c
  4014   0024F4  6A02               	clrf	(?___fpclassifyf+1)^0,c
  4015   0024F6  EF81  F012         	goto	l974
  4016   0024FA                     l2874:
  4017   0024FA  0E00               	movlw	0
  4018   0024FC  6E02               	movwf	(?___fpclassifyf+1)^0,c
  4019   0024FE  0E04               	movlw	4
  4020   002500  6E01               	movwf	?___fpclassifyf^0,c
  4021   002502                     l974:
  4022   002502  0012               	return		;funcret
  4023   002504                     __end_of___fpclassifyf:
  4024                           	callstack 0
  4025                           
  4026 ;; *************** function ___fltol *****************
  4027 ;; Defined at:
  4028 ;;		line 43 in file "C:\Program Files\Microchip\xc8\v2.41\pic\sources\c99\common\fltol.c"
  4029 ;; Parameters:    Size  Location     Type
  4030 ;;  f1              4    0[COMRAM] int 
  4031 ;; Auto vars:     Size  Location     Type
  4032 ;;  exp1            1    9[COMRAM] unsigned char 
  4033 ;;  sign1           1    8[COMRAM] unsigned char 
  4034 ;; Return value:  Size  Location     Type
  4035 ;;                  4    0[COMRAM] long 
  4036 ;; Registers used:
  4037 ;;		wreg, status,2, status,0
  4038 ;; Tracked objects:
  4039 ;;		On entry : 0/0
  4040 ;;		On exit  : 0/0
  4041 ;;		Unchanged: 0/0
  4042 ;; Data sizes:     COMRAM   BANK0   BANK1   BANK2   BANK3   BANK4   BANK5
  4043 ;;      Params:         4       0       0       0       0       0       0
  4044 ;;      Locals:         2       0       0       0       0       0       0
  4045 ;;      Temps:          4       0       0       0       0       0       0
  4046 ;;      Totals:        10       0       0       0       0       0       0
  4047 ;;Total ram usage:       10 bytes
  4048 ;; Hardware stack levels used: 1
  4049 ;; This function calls:
  4050 ;;		Nothing
  4051 ;; This function is called by:
  4052 ;;		_efgtoa
  4053 ;; This function uses a non-reentrant model
  4054 ;;
  4055                           
  4056                           	psect	text17
  4057   0021FC                     __ptext17:
  4058                           	callstack 0
  4059   0021FC                     ___fltol:
  4060                           	callstack 26
  4061   0021FC  3403               	rlcf	(___fltol@f1+2)^0,w,c
  4062   0021FE  3404               	rlcf	(___fltol@f1+3)^0,w,c
  4063   002200  6E0A               	movwf	___fltol@exp1^0,c
  4064   002202  500A               	movf	___fltol@exp1^0,w,c
  4065   002204  A4D8               	btfss	status,2,c
  4066   002206  EF07  F011         	goto	u2681
  4067   00220A  EF09  F011         	goto	u2680
  4068   00220E                     u2681:
  4069   00220E  EF13  F011         	goto	l2800
  4070   002212                     u2680:
  4071   002212                     l2796:
  4072   002212  0E00               	movlw	0
  4073   002214  6E01               	movwf	?___fltol^0,c
  4074   002216  0E00               	movlw	0
  4075   002218  6E02               	movwf	(?___fltol+1)^0,c
  4076   00221A  0E00               	movlw	0
  4077   00221C  6E03               	movwf	(?___fltol+2)^0,c
  4078   00221E  0E00               	movlw	0
  4079   002220  6E04               	movwf	(?___fltol+3)^0,c
  4080   002222  EF80  F011         	goto	l460
  4081   002226                     l2800:
  4082   002226  C001  F005         	movff	___fltol@f1,??___fltol
  4083   00222A  C002  F006         	movff	___fltol@f1+1,??___fltol+1
  4084   00222E  C003  F007         	movff	___fltol@f1+2,??___fltol+2
  4085   002232  C004  F008         	movff	___fltol@f1+3,??___fltol+3
  4086   002236  0E20               	movlw	32
  4087   002238  EF23  F011         	goto	u2690
  4088   00223C                     u2695:
  4089   00223C  90D8               	bcf	status,0,c
  4090   00223E  3208               	rrcf	(??___fltol+3)^0,f,c
  4091   002240  3207               	rrcf	(??___fltol+2)^0,f,c
  4092   002242  3206               	rrcf	(??___fltol+1)^0,f,c
  4093   002244  3205               	rrcf	??___fltol^0,f,c
  4094   002246                     u2690:
  4095   002246  2EE8               	decfsz	wreg,f,c
  4096   002248  EF1E  F011         	goto	u2695
  4097   00224C  5005               	movf	??___fltol^0,w,c
  4098   00224E  6E09               	movwf	___fltol@sign1^0,c
  4099   002250  8E03               	bsf	(___fltol@f1+2)^0,7,c
  4100   002252  0EFF               	movlw	255
  4101   002254  1601               	andwf	___fltol@f1^0,f,c
  4102   002256  0EFF               	movlw	255
  4103   002258  1602               	andwf	(___fltol@f1+1)^0,f,c
  4104   00225A  0EFF               	movlw	255
  4105   00225C  1603               	andwf	(___fltol@f1+2)^0,f,c
  4106   00225E  0E00               	movlw	0
  4107   002260  1604               	andwf	(___fltol@f1+3)^0,f,c
  4108   002262  0E96               	movlw	150
  4109   002264  5E0A               	subwf	___fltol@exp1^0,f,c
  4110   002266  BE0A               	btfsc	___fltol@exp1^0,7,c
  4111   002268  EF3A  F011         	goto	u2700
  4112   00226C  EF38  F011         	goto	u2701
  4113   002270                     u2701:
  4114   002270  EF50  F011         	goto	l2820
  4115   002274                     u2700:
  4116   002274  500A               	movf	___fltol@exp1^0,w,c
  4117   002276  0A80               	xorlw	128
  4118   002278  0F97               	addlw	151
  4119   00227A  B0D8               	btfsc	status,0,c
  4120   00227C  EF42  F011         	goto	u2711
  4121   002280  EF44  F011         	goto	u2710
  4122   002284                     u2711:
  4123   002284  EF46  F011         	goto	l2816
  4124   002288                     u2710:
  4125   002288  EF09  F011         	goto	l2796
  4126   00228C                     l2816:
  4127   00228C  90D8               	bcf	status,0,c
  4128   00228E  3204               	rrcf	(___fltol@f1+3)^0,f,c
  4129   002290  3203               	rrcf	(___fltol@f1+2)^0,f,c
  4130   002292  3202               	rrcf	(___fltol@f1+1)^0,f,c
  4131   002294  3201               	rrcf	___fltol@f1^0,f,c
  4132   002296  3E0A               	incfsz	___fltol@exp1^0,f,c
  4133   002298  EF46  F011         	goto	l2816
  4134   00229C  EF68  F011         	goto	l2830
  4135   0022A0                     l2820:
  4136   0022A0  0E1F               	movlw	31
  4137   0022A2  640A               	cpfsgt	___fltol@exp1^0,c
  4138   0022A4  EF56  F011         	goto	u2721
  4139   0022A8  EF58  F011         	goto	u2720
  4140   0022AC                     u2721:
  4141   0022AC  EF60  F011         	goto	l2828
  4142   0022B0                     u2720:
  4143   0022B0  EF09  F011         	goto	l2796
  4144   0022B4                     l2826:
  4145   0022B4  90D8               	bcf	status,0,c
  4146   0022B6  3601               	rlcf	___fltol@f1^0,f,c
  4147   0022B8  3602               	rlcf	(___fltol@f1+1)^0,f,c
  4148   0022BA  3603               	rlcf	(___fltol@f1+2)^0,f,c
  4149   0022BC  3604               	rlcf	(___fltol@f1+3)^0,f,c
  4150   0022BE  060A               	decf	___fltol@exp1^0,f,c
  4151   0022C0                     l2828:
  4152   0022C0  500A               	movf	___fltol@exp1^0,w,c
  4153   0022C2  A4D8               	btfss	status,2,c
  4154   0022C4  EF66  F011         	goto	u2731
  4155   0022C8  EF68  F011         	goto	u2730
  4156   0022CC                     u2731:
  4157   0022CC  EF5A  F011         	goto	l2826
  4158   0022D0                     u2730:
  4159   0022D0                     l2830:
  4160   0022D0  5009               	movf	___fltol@sign1^0,w,c
  4161   0022D2  B4D8               	btfsc	status,2,c
  4162   0022D4  EF6E  F011         	goto	u2741
  4163   0022D8  EF70  F011         	goto	u2740
  4164   0022DC                     u2741:
  4165   0022DC  EF78  F011         	goto	l2834
  4166   0022E0                     u2740:
  4167   0022E0  1E04               	comf	(___fltol@f1+3)^0,f,c
  4168   0022E2  1E03               	comf	(___fltol@f1+2)^0,f,c
  4169   0022E4  1E02               	comf	(___fltol@f1+1)^0,f,c
  4170   0022E6  6C01               	negf	___fltol@f1^0,c
  4171   0022E8  0E00               	movlw	0
  4172   0022EA  2202               	addwfc	(___fltol@f1+1)^0,f,c
  4173   0022EC  2203               	addwfc	(___fltol@f1+2)^0,f,c
  4174   0022EE  2204               	addwfc	(___fltol@f1+3)^0,f,c
  4175   0022F0                     l2834:
  4176   0022F0  C001  F001         	movff	___fltol@f1,?___fltol
  4177   0022F4  C002  F002         	movff	___fltol@f1+1,?___fltol+1
  4178   0022F8  C003  F003         	movff	___fltol@f1+2,?___fltol+2
  4179   0022FC  C004  F004         	movff	___fltol@f1+3,?___fltol+3
  4180   002300                     l460:
  4181   002300  0012               	return		;funcret
  4182   002302                     __end_of___fltol:
  4183                           	callstack 0
  4184                           
  4185 ;; *************** function ___flsub *****************
  4186 ;; Defined at:
  4187 ;;		line 245 in file "C:\Program Files\Microchip\xc8\v2.41\pic\sources\c99\common\sprcadd.c"
  4188 ;; Parameters:    Size  Location     Type
  4189 ;;  b               4   25[COMRAM] long 
  4190 ;;  a               4   29[COMRAM] long 
  4191 ;; Auto vars:     Size  Location     Type
  4192 ;;		None
  4193 ;; Return value:  Size  Location     Type
  4194 ;;                  4   25[COMRAM] long 
  4195 ;; Registers used:
  4196 ;;		wreg, status,2, status,0, cstack
  4197 ;; Tracked objects:
  4198 ;;		On entry : 0/0
  4199 ;;		On exit  : 0/0
  4200 ;;		Unchanged: 0/0
  4201 ;; Data sizes:     COMRAM   BANK0   BANK1   BANK2   BANK3   BANK4   BANK5
  4202 ;;      Params:         8       0       0       0       0       0       0
  4203 ;;      Locals:         0       0       0       0       0       0       0
  4204 ;;      Temps:          0       0       0       0       0       0       0
  4205 ;;      Totals:         8       0       0       0       0       0       0
  4206 ;;Total ram usage:        8 bytes
  4207 ;; Hardware stack levels used: 1
  4208 ;; Hardware stack levels required when called: 1
  4209 ;; This function calls:
  4210 ;;		___fladd
  4211 ;; This function is called by:
  4212 ;;		_efgtoa
  4213 ;; This function uses a non-reentrant model
  4214 ;;
  4215                           
  4216                           	psect	text18
  4217   00293E                     __ptext18:
  4218                           	callstack 0
  4219   00293E                     ___flsub:
  4220                           	callstack 25
  4221   00293E  0E00               	movlw	0
  4222   002940  1A1E               	xorwf	___flsub@a^0,f,c
  4223   002942  0E00               	movlw	0
  4224   002944  1A1F               	xorwf	(___flsub@a+1)^0,f,c
  4225   002946  0E00               	movlw	0
  4226   002948  1A20               	xorwf	(___flsub@a+2)^0,f,c
  4227   00294A  0E80               	movlw	128
  4228   00294C  1A21               	xorwf	(___flsub@a+3)^0,f,c
  4229   00294E  C01A  F001         	movff	___flsub@b,___fladd@b
  4230   002952  C01B  F002         	movff	___flsub@b+1,___fladd@b+1
  4231   002956  C01C  F003         	movff	___flsub@b+2,___fladd@b+2
  4232   00295A  C01D  F004         	movff	___flsub@b+3,___fladd@b+3
  4233   00295E  C01E  F005         	movff	___flsub@a,___fladd@a
  4234   002962  C01F  F006         	movff	___flsub@a+1,___fladd@a+1
  4235   002966  C020  F007         	movff	___flsub@a+2,___fladd@a+2
  4236   00296A  C021  F008         	movff	___flsub@a+3,___fladd@a+3
  4237   00296E  EC05  F008         	call	___fladd	;wreg free
  4238   002972  C001  F01A         	movff	?___fladd,?___flsub
  4239   002976  C002  F01B         	movff	?___fladd+1,?___flsub+1
  4240   00297A  C003  F01C         	movff	?___fladd+2,?___flsub+2
  4241   00297E  C004  F01D         	movff	?___fladd+3,?___flsub+3
  4242   002982  0012               	return		;funcret
  4243   002984                     __end_of___flsub:
  4244                           	callstack 0
  4245                           
  4246 ;; *************** function ___fladd *****************
  4247 ;; Defined at:
  4248 ;;		line 10 in file "C:\Program Files\Microchip\xc8\v2.41\pic\sources\c99\common\sprcadd.c"
  4249 ;; Parameters:    Size  Location     Type
  4250 ;;  b               4    0[COMRAM] long 
  4251 ;;  a               4    4[COMRAM] long 
  4252 ;; Auto vars:     Size  Location     Type
  4253 ;;  grs             1   15[COMRAM] unsigned char 
  4254 ;;  bexp            1   14[COMRAM] unsigned char 
  4255 ;;  aexp            1   13[COMRAM] unsigned char 
  4256 ;;  signs           1   12[COMRAM] unsigned char 
  4257 ;; Return value:  Size  Location     Type
  4258 ;;                  4    0[COMRAM] unsigned char 
  4259 ;; Registers used:
  4260 ;;		wreg, status,2, status,0
  4261 ;; Tracked objects:
  4262 ;;		On entry : 0/0
  4263 ;;		On exit  : 0/0
  4264 ;;		Unchanged: 0/0
  4265 ;; Data sizes:     COMRAM   BANK0   BANK1   BANK2   BANK3   BANK4   BANK5
  4266 ;;      Params:         8       0       0       0       0       0       0
  4267 ;;      Locals:         4       0       0       0       0       0       0
  4268 ;;      Temps:          4       0       0       0       0       0       0
  4269 ;;      Totals:        16       0       0       0       0       0       0
  4270 ;;Total ram usage:       16 bytes
  4271 ;; Hardware stack levels used: 1
  4272 ;; This function calls:
  4273 ;;		Nothing
  4274 ;; This function is called by:
  4275 ;;		_main
  4276 ;;		___flsub
  4277 ;;		_efgtoa
  4278 ;; This function uses a non-reentrant model
  4279 ;;
  4280                           
  4281                           	psect	text19
  4282   00100A                     __ptext19:
  4283                           	callstack 0
  4284   00100A                     ___fladd:
  4285                           	callstack 25
  4286   00100A  5004               	movf	(___fladd@b+3)^0,w,c
  4287   00100C  0B80               	andlw	128
  4288   00100E  6E0D               	movwf	___fladd@signs^0,c
  4289   001010  5004               	movf	(___fladd@b+3)^0,w,c
  4290   001012  2404               	addwf	(___fladd@b+3)^0,w,c
  4291   001014  6E0F               	movwf	___fladd@bexp^0,c
  4292   001016  AE03               	btfss	(___fladd@b+2)^0,7,c
  4293   001018  EF10  F008         	goto	u1771
  4294   00101C  EF12  F008         	goto	u1770
  4295   001020                     u1771:
  4296   001020  EF13  F008         	goto	l2264
  4297   001024                     u1770:
  4298   001024  800F               	bsf	___fladd@bexp^0,0,c
  4299   001026                     l2264:
  4300   001026  500F               	movf	___fladd@bexp^0,w,c
  4301   001028  B4D8               	btfsc	status,2,c
  4302   00102A  EF19  F008         	goto	u1781
  4303   00102E  EF1B  F008         	goto	u1780
  4304   001032                     u1781:
  4305   001032  EF30  F008         	goto	l2274
  4306   001036                     u1780:
  4307   001036  280F               	incf	___fladd@bexp^0,w,c
  4308   001038  A4D8               	btfss	status,2,c
  4309   00103A  EF21  F008         	goto	u1791
  4310   00103E  EF23  F008         	goto	u1790
  4311   001042                     u1791:
  4312   001042  EF2B  F008         	goto	l2270
  4313   001046                     u1790:
  4314   001046  0E00               	movlw	0
  4315   001048  6E01               	movwf	___fladd@b^0,c
  4316   00104A  0E00               	movlw	0
  4317   00104C  6E02               	movwf	(___fladd@b+1)^0,c
  4318   00104E  0E00               	movlw	0
  4319   001050  6E03               	movwf	(___fladd@b+2)^0,c
  4320   001052  0E00               	movlw	0
  4321   001054  6E04               	movwf	(___fladd@b+3)^0,c
  4322   001056                     l2270:
  4323   001056  8E03               	bsf	(___fladd@b+2)^0,7,c
  4324   001058  0E00               	movlw	0
  4325   00105A  6E04               	movwf	(___fladd@b+3)^0,c
  4326   00105C  EF38  F008         	goto	l2276
  4327   001060                     l2274:
  4328   001060  0E00               	movlw	0
  4329   001062  6E01               	movwf	___fladd@b^0,c
  4330   001064  0E00               	movlw	0
  4331   001066  6E02               	movwf	(___fladd@b+1)^0,c
  4332   001068  0E00               	movlw	0
  4333   00106A  6E03               	movwf	(___fladd@b+2)^0,c
  4334   00106C  0E00               	movlw	0
  4335   00106E  6E04               	movwf	(___fladd@b+3)^0,c
  4336   001070                     l2276:
  4337   001070  5008               	movf	(___fladd@a+3)^0,w,c
  4338   001072  0B80               	andlw	128
  4339   001074  6E0E               	movwf	___fladd@aexp^0,c
  4340   001076  500D               	movf	___fladd@signs^0,w,c
  4341   001078  180E               	xorwf	___fladd@aexp^0,w,c
  4342   00107A  B4D8               	btfsc	status,2,c
  4343   00107C  EF42  F008         	goto	u1801
  4344   001080  EF44  F008         	goto	u1800
  4345   001084                     u1801:
  4346   001084  EF45  F008         	goto	l2282
  4347   001088                     u1800:
  4348   001088  8C0D               	bsf	___fladd@signs^0,6,c
  4349   00108A                     l2282:
  4350   00108A  5008               	movf	(___fladd@a+3)^0,w,c
  4351   00108C  2408               	addwf	(___fladd@a+3)^0,w,c
  4352   00108E  6E0E               	movwf	___fladd@aexp^0,c
  4353   001090  AE07               	btfss	(___fladd@a+2)^0,7,c
  4354   001092  EF4D  F008         	goto	u1811
  4355   001096  EF4F  F008         	goto	u1810
  4356   00109A                     u1811:
  4357   00109A  EF50  F008         	goto	l2288
  4358   00109E                     u1810:
  4359   00109E  800E               	bsf	___fladd@aexp^0,0,c
  4360   0010A0                     l2288:
  4361   0010A0  500E               	movf	___fladd@aexp^0,w,c
  4362   0010A2  B4D8               	btfsc	status,2,c
  4363   0010A4  EF56  F008         	goto	u1821
  4364   0010A8  EF58  F008         	goto	u1820
  4365   0010AC                     u1821:
  4366   0010AC  EF6D  F008         	goto	l2298
  4367   0010B0                     u1820:
  4368   0010B0  280E               	incf	___fladd@aexp^0,w,c
  4369   0010B2  A4D8               	btfss	status,2,c
  4370   0010B4  EF5E  F008         	goto	u1831
  4371   0010B8  EF60  F008         	goto	u1830
  4372   0010BC                     u1831:
  4373   0010BC  EF68  F008         	goto	l2294
  4374   0010C0                     u1830:
  4375   0010C0  0E00               	movlw	0
  4376   0010C2  6E05               	movwf	___fladd@a^0,c
  4377   0010C4  0E00               	movlw	0
  4378   0010C6  6E06               	movwf	(___fladd@a+1)^0,c
  4379   0010C8  0E00               	movlw	0
  4380   0010CA  6E07               	movwf	(___fladd@a+2)^0,c
  4381   0010CC  0E00               	movlw	0
  4382   0010CE  6E08               	movwf	(___fladd@a+3)^0,c
  4383   0010D0                     l2294:
  4384   0010D0  8E07               	bsf	(___fladd@a+2)^0,7,c
  4385   0010D2  0E00               	movlw	0
  4386   0010D4  6E08               	movwf	(___fladd@a+3)^0,c
  4387   0010D6  EF75  F008         	goto	l2300
  4388   0010DA                     l2298:
  4389   0010DA  0E00               	movlw	0
  4390   0010DC  6E05               	movwf	___fladd@a^0,c
  4391   0010DE  0E00               	movlw	0
  4392   0010E0  6E06               	movwf	(___fladd@a+1)^0,c
  4393   0010E2  0E00               	movlw	0
  4394   0010E4  6E07               	movwf	(___fladd@a+2)^0,c
  4395   0010E6  0E00               	movlw	0
  4396   0010E8  6E08               	movwf	(___fladd@a+3)^0,c
  4397   0010EA                     l2300:
  4398   0010EA  500F               	movf	___fladd@bexp^0,w,c
  4399   0010EC  5C0E               	subwf	___fladd@aexp^0,w,c
  4400   0010EE  B0D8               	btfsc	status,0,c
  4401   0010F0  EF7C  F008         	goto	u1841
  4402   0010F4  EF7E  F008         	goto	u1840
  4403   0010F8                     u1841:
  4404   0010F8  EFA5  F008         	goto	l2336
  4405   0010FC                     u1840:
  4406   0010FC  AC0D               	btfss	___fladd@signs^0,6,c
  4407   0010FE  EF83  F008         	goto	u1851
  4408   001102  EF85  F008         	goto	u1850
  4409   001106                     u1851:
  4410   001106  EF87  F008         	goto	l2306
  4411   00110A                     u1850:
  4412   00110A  0E80               	movlw	128
  4413   00110C  1A0D               	xorwf	___fladd@signs^0,f,c
  4414   00110E                     l2306:
  4415   00110E  C00F  F010         	movff	___fladd@bexp,___fladd@grs
  4416   001112  C00E  F00F         	movff	___fladd@aexp,___fladd@bexp
  4417   001116  C010  F00E         	movff	___fladd@grs,___fladd@aexp
  4418   00111A  C001  F010         	movff	___fladd@b,___fladd@grs
  4419   00111E  C005  F001         	movff	___fladd@a,___fladd@b
  4420   001122  C010  F005         	movff	___fladd@grs,___fladd@a
  4421   001126  C002  F010         	movff	___fladd@b+1,___fladd@grs
  4422   00112A  C006  F002         	movff	___fladd@a+1,___fladd@b+1
  4423   00112E  C010  F006         	movff	___fladd@grs,___fladd@a+1
  4424   001132  C003  F010         	movff	___fladd@b+2,___fladd@grs
  4425   001136  C007  F003         	movff	___fladd@a+2,___fladd@b+2
  4426   00113A  C010  F007         	movff	___fladd@grs,___fladd@a+2
  4427   00113E  C004  F010         	movff	___fladd@b+3,___fladd@grs
  4428   001142  C008  F004         	movff	___fladd@a+3,___fladd@b+3
  4429   001146  C010  F008         	movff	___fladd@grs,___fladd@a+3
  4430   00114A                     l2336:
  4431   00114A  0E00               	movlw	0
  4432   00114C  6E10               	movwf	___fladd@grs^0,c
  4433   00114E  500F               	movf	___fladd@bexp^0,w,c
  4434   001150  C00E  F009         	movff	___fladd@aexp,??___fladd
  4435   001154  6A0A               	clrf	(??___fladd+1)^0,c
  4436   001156  5E09               	subwf	??___fladd^0,f,c
  4437   001158  0E00               	movlw	0
  4438   00115A  5A0A               	subwfb	(??___fladd+1)^0,f,c
  4439   00115C  BE0A               	btfsc	(??___fladd+1)^0,7,c
  4440   00115E  EFBA  F008         	goto	u1861
  4441   001162  500A               	movf	(??___fladd+1)^0,w,c
  4442   001164  E109               	bnz	u1860
  4443   001166  0E1A               	movlw	26
  4444   001168  5C09               	subwf	??___fladd^0,w,c
  4445   00116A  A0D8               	btfss	status,0,c
  4446   00116C  EFBA  F008         	goto	u1861
  4447   001170  EFBC  F008         	goto	u1860
  4448   001174                     u1861:
  4449   001174  EFF3  F008         	goto	l692
  4450   001178                     u1860:
  4451   001178  5001               	movf	___fladd@b^0,w,c
  4452   00117A  1002               	iorwf	(___fladd@b+1)^0,w,c
  4453   00117C  1003               	iorwf	(___fladd@b+2)^0,w,c
  4454   00117E  1004               	iorwf	(___fladd@b+3)^0,w,c
  4455   001180  A4D8               	btfss	status,2,c
  4456   001182  EFC5  F008         	goto	u1871
  4457   001186  EFC8  F008         	goto	u1870
  4458   00118A                     u1871:
  4459   00118A  0E01               	movlw	1
  4460   00118C  EFC9  F008         	goto	u1880
  4461   001190                     u1870:
  4462   001190  0E00               	movlw	0
  4463   001192                     u1880:
  4464   001192  6E10               	movwf	___fladd@grs^0,c
  4465   001194  0E00               	movlw	0
  4466   001196  6E01               	movwf	___fladd@b^0,c
  4467   001198  0E00               	movlw	0
  4468   00119A  6E02               	movwf	(___fladd@b+1)^0,c
  4469   00119C  0E00               	movlw	0
  4470   00119E  6E03               	movwf	(___fladd@b+2)^0,c
  4471   0011A0  0E00               	movlw	0
  4472   0011A2  6E04               	movwf	(___fladd@b+3)^0,c
  4473   0011A4  C00E  F00F         	movff	___fladd@aexp,___fladd@bexp
  4474   0011A8  EFFC  F008         	goto	l691
  4475   0011AC                     l693:
  4476   0011AC  A010               	btfss	___fladd@grs^0,0,c
  4477   0011AE  EFDB  F008         	goto	u1891
  4478   0011B2  EFDD  F008         	goto	u1890
  4479   0011B6                     u1891:
  4480   0011B6  EFE3  F008         	goto	l2348
  4481   0011BA                     u1890:
  4482   0011BA  90D8               	bcf	status,0,c
  4483   0011BC  3010               	rrcf	___fladd@grs^0,w,c
  4484   0011BE  0901               	iorlw	1
  4485   0011C0  6E10               	movwf	___fladd@grs^0,c
  4486   0011C2  EFE5  F008         	goto	l2350
  4487   0011C6                     l2348:
  4488   0011C6  90D8               	bcf	status,0,c
  4489   0011C8  3210               	rrcf	___fladd@grs^0,f,c
  4490   0011CA                     l2350:
  4491   0011CA  A001               	btfss	___fladd@b^0,0,c
  4492   0011CC  EFEA  F008         	goto	u1901
  4493   0011D0  EFEC  F008         	goto	u1900
  4494   0011D4                     u1901:
  4495   0011D4  EFED  F008         	goto	l2354
  4496   0011D8                     u1900:
  4497   0011D8  8E10               	bsf	___fladd@grs^0,7,c
  4498   0011DA                     l2354:
  4499   0011DA  3404               	rlcf	(___fladd@b+3)^0,w,c
  4500   0011DC  3204               	rrcf	(___fladd@b+3)^0,f,c
  4501   0011DE  3203               	rrcf	(___fladd@b+2)^0,f,c
  4502   0011E0  3202               	rrcf	(___fladd@b+1)^0,f,c
  4503   0011E2  3201               	rrcf	___fladd@b^0,f,c
  4504   0011E4  2A0F               	incf	___fladd@bexp^0,f,c
  4505   0011E6                     l692:
  4506   0011E6  500E               	movf	___fladd@aexp^0,w,c
  4507   0011E8  5C0F               	subwf	___fladd@bexp^0,w,c
  4508   0011EA  A0D8               	btfss	status,0,c
  4509   0011EC  EFFA  F008         	goto	u1911
  4510   0011F0  EFFC  F008         	goto	u1910
  4511   0011F4                     u1911:
  4512   0011F4  EFD6  F008         	goto	l693
  4513   0011F8                     u1910:
  4514   0011F8                     l691:
  4515   0011F8  BC0D               	btfsc	___fladd@signs^0,6,c
  4516   0011FA  EF01  F009         	goto	u1921
  4517   0011FE  EF03  F009         	goto	u1920
  4518   001202                     u1921:
  4519   001202  EF43  F009         	goto	l2382
  4520   001206                     u1920:
  4521   001206  500F               	movf	___fladd@bexp^0,w,c
  4522   001208  A4D8               	btfss	status,2,c
  4523   00120A  EF09  F009         	goto	u1931
  4524   00120E  EF0B  F009         	goto	u1930
  4525   001212                     u1931:
  4526   001212  EF15  F009         	goto	l2364
  4527   001216                     u1930:
  4528   001216  0E00               	movlw	0
  4529   001218  6E01               	movwf	?___fladd^0,c
  4530   00121A  0E00               	movlw	0
  4531   00121C  6E02               	movwf	(?___fladd+1)^0,c
  4532   00121E  0E00               	movlw	0
  4533   001220  6E03               	movwf	(?___fladd+2)^0,c
  4534   001222  0E00               	movlw	0
  4535   001224  6E04               	movwf	(?___fladd+3)^0,c
  4536   001226  EF64  F00A         	goto	l700
  4537   00122A                     l2364:
  4538   00122A  5005               	movf	___fladd@a^0,w,c
  4539   00122C  2601               	addwf	___fladd@b^0,f,c
  4540   00122E  5006               	movf	(___fladd@a+1)^0,w,c
  4541   001230  2202               	addwfc	(___fladd@b+1)^0,f,c
  4542   001232  5007               	movf	(___fladd@a+2)^0,w,c
  4543   001234  2203               	addwfc	(___fladd@b+2)^0,f,c
  4544   001236  5008               	movf	(___fladd@a+3)^0,w,c
  4545   001238  2204               	addwfc	(___fladd@b+3)^0,f,c
  4546   00123A  A004               	btfss	(___fladd@b+3)^0,0,c
  4547   00123C  EF22  F009         	goto	u1941
  4548   001240  EF24  F009         	goto	u1940
  4549   001244                     u1941:
  4550   001244  EFD0  F009         	goto	l2418
  4551   001248                     u1940:
  4552   001248  A010               	btfss	___fladd@grs^0,0,c
  4553   00124A  EF29  F009         	goto	u1951
  4554   00124E  EF2B  F009         	goto	u1950
  4555   001252                     u1951:
  4556   001252  EF31  F009         	goto	l2372
  4557   001256                     u1950:
  4558   001256  90D8               	bcf	status,0,c
  4559   001258  3010               	rrcf	___fladd@grs^0,w,c
  4560   00125A  0901               	iorlw	1
  4561   00125C  6E10               	movwf	___fladd@grs^0,c
  4562   00125E  EF33  F009         	goto	l2374
  4563   001262                     l2372:
  4564   001262  90D8               	bcf	status,0,c
  4565   001264  3210               	rrcf	___fladd@grs^0,f,c
  4566   001266                     l2374:
  4567   001266  A001               	btfss	___fladd@b^0,0,c
  4568   001268  EF38  F009         	goto	u1961
  4569   00126C  EF3A  F009         	goto	u1960
  4570   001270                     u1961:
  4571   001270  EF3B  F009         	goto	l2378
  4572   001274                     u1960:
  4573   001274  8E10               	bsf	___fladd@grs^0,7,c
  4574   001276                     l2378:
  4575   001276  3404               	rlcf	(___fladd@b+3)^0,w,c
  4576   001278  3204               	rrcf	(___fladd@b+3)^0,f,c
  4577   00127A  3203               	rrcf	(___fladd@b+2)^0,f,c
  4578   00127C  3202               	rrcf	(___fladd@b+1)^0,f,c
  4579   00127E  3201               	rrcf	___fladd@b^0,f,c
  4580   001280  2A0F               	incf	___fladd@bexp^0,f,c
  4581   001282  EFD0  F009         	goto	l2418
  4582   001286                     l2382:
  4583   001286  5005               	movf	___fladd@a^0,w,c
  4584   001288  5C01               	subwf	___fladd@b^0,w,c
  4585   00128A  5006               	movf	(___fladd@a+1)^0,w,c
  4586   00128C  5802               	subwfb	(___fladd@b+1)^0,w,c
  4587   00128E  5007               	movf	(___fladd@a+2)^0,w,c
  4588   001290  5803               	subwfb	(___fladd@b+2)^0,w,c
  4589   001292  5004               	movf	(___fladd@b+3)^0,w,c
  4590   001294  0A80               	xorlw	128
  4591   001296  6E09               	movwf	??___fladd^0,c
  4592   001298  5008               	movf	(___fladd@a+3)^0,w,c
  4593   00129A  0A80               	xorlw	128
  4594   00129C  5809               	subwfb	??___fladd^0,w,c
  4595   00129E  B0D8               	btfsc	status,0,c
  4596   0012A0  EF54  F009         	goto	u1971
  4597   0012A4  EF56  F009         	goto	u1970
  4598   0012A8                     u1971:
  4599   0012A8  EF81  F009         	goto	l2392
  4600   0012AC                     u1970:
  4601   0012AC  5001               	movf	___fladd@b^0,w,c
  4602   0012AE  5C05               	subwf	___fladd@a^0,w,c
  4603   0012B0  6E09               	movwf	??___fladd^0,c
  4604   0012B2  5002               	movf	(___fladd@b+1)^0,w,c
  4605   0012B4  5806               	subwfb	(___fladd@a+1)^0,w,c
  4606   0012B6  6E0A               	movwf	(??___fladd+1)^0,c
  4607   0012B8  5003               	movf	(___fladd@b+2)^0,w,c
  4608   0012BA  5807               	subwfb	(___fladd@a+2)^0,w,c
  4609   0012BC  6E0B               	movwf	(??___fladd+2)^0,c
  4610   0012BE  5004               	movf	(___fladd@b+3)^0,w,c
  4611   0012C0  5808               	subwfb	(___fladd@a+3)^0,w,c
  4612   0012C2  6E0C               	movwf	(??___fladd+3)^0,c
  4613   0012C4  0EFF               	movlw	255
  4614   0012C6  2409               	addwf	??___fladd^0,w,c
  4615   0012C8  6E01               	movwf	___fladd@b^0,c
  4616   0012CA  0EFF               	movlw	255
  4617   0012CC  200A               	addwfc	(??___fladd+1)^0,w,c
  4618   0012CE  6E02               	movwf	(___fladd@b+1)^0,c
  4619   0012D0  0EFF               	movlw	255
  4620   0012D2  200B               	addwfc	(??___fladd+2)^0,w,c
  4621   0012D4  6E03               	movwf	(___fladd@b+2)^0,c
  4622   0012D6  0EFF               	movlw	255
  4623   0012D8  200C               	addwfc	(??___fladd+3)^0,w,c
  4624   0012DA  6E04               	movwf	(___fladd@b+3)^0,c
  4625   0012DC  0E80               	movlw	128
  4626   0012DE  1A0D               	xorwf	___fladd@signs^0,f,c
  4627   0012E0  6C10               	negf	___fladd@grs^0,c
  4628   0012E2  5010               	movf	___fladd@grs^0,w,c
  4629   0012E4  A4D8               	btfss	status,2,c
  4630   0012E6  EF77  F009         	goto	u1981
  4631   0012EA  EF79  F009         	goto	u1980
  4632   0012EE                     u1981:
  4633   0012EE  EF89  F009         	goto	l708
  4634   0012F2                     u1980:
  4635   0012F2  0E01               	movlw	1
  4636   0012F4  2601               	addwf	___fladd@b^0,f,c
  4637   0012F6  0E00               	movlw	0
  4638   0012F8  2202               	addwfc	(___fladd@b+1)^0,f,c
  4639   0012FA  2203               	addwfc	(___fladd@b+2)^0,f,c
  4640   0012FC  2204               	addwfc	(___fladd@b+3)^0,f,c
  4641   0012FE  EF89  F009         	goto	l708
  4642   001302                     l2392:
  4643   001302  5005               	movf	___fladd@a^0,w,c
  4644   001304  5E01               	subwf	___fladd@b^0,f,c
  4645   001306  5006               	movf	(___fladd@a+1)^0,w,c
  4646   001308  5A02               	subwfb	(___fladd@b+1)^0,f,c
  4647   00130A  5007               	movf	(___fladd@a+2)^0,w,c
  4648   00130C  5A03               	subwfb	(___fladd@b+2)^0,f,c
  4649   00130E  5008               	movf	(___fladd@a+3)^0,w,c
  4650   001310  5A04               	subwfb	(___fladd@b+3)^0,f,c
  4651   001312                     l708:
  4652   001312  5001               	movf	___fladd@b^0,w,c
  4653   001314  1002               	iorwf	(___fladd@b+1)^0,w,c
  4654   001316  1003               	iorwf	(___fladd@b+2)^0,w,c
  4655   001318  1004               	iorwf	(___fladd@b+3)^0,w,c
  4656   00131A  A4D8               	btfss	status,2,c
  4657   00131C  EF92  F009         	goto	u1991
  4658   001320  EF94  F009         	goto	u1990
  4659   001324                     u1991:
  4660   001324  EFC9  F009         	goto	l2416
  4661   001328                     u1990:
  4662   001328  5010               	movf	___fladd@grs^0,w,c
  4663   00132A  A4D8               	btfss	status,2,c
  4664   00132C  EF9A  F009         	goto	u2001
  4665   001330  EF9C  F009         	goto	u2000
  4666   001334                     u2001:
  4667   001334  EFC9  F009         	goto	l2416
  4668   001338                     u2000:
  4669   001338  0E00               	movlw	0
  4670   00133A  6E01               	movwf	?___fladd^0,c
  4671   00133C  0E00               	movlw	0
  4672   00133E  6E02               	movwf	(?___fladd+1)^0,c
  4673   001340  0E00               	movlw	0
  4674   001342  6E03               	movwf	(?___fladd+2)^0,c
  4675   001344  0E00               	movlw	0
  4676   001346  6E04               	movwf	(?___fladd+3)^0,c
  4677   001348  EF64  F00A         	goto	l700
  4678   00134C                     l2400:
  4679   00134C  90D8               	bcf	status,0,c
  4680   00134E  3601               	rlcf	___fladd@b^0,f,c
  4681   001350  3602               	rlcf	(___fladd@b+1)^0,f,c
  4682   001352  3603               	rlcf	(___fladd@b+2)^0,f,c
  4683   001354  3604               	rlcf	(___fladd@b+3)^0,f,c
  4684   001356  AE10               	btfss	___fladd@grs^0,7,c
  4685   001358  EFB0  F009         	goto	u2011
  4686   00135C  EFB2  F009         	goto	u2010
  4687   001360                     u2011:
  4688   001360  EFB3  F009         	goto	l2406
  4689   001364                     u2010:
  4690   001364  8001               	bsf	___fladd@b^0,0,c
  4691   001366                     l2406:
  4692   001366  A010               	btfss	___fladd@grs^0,0,c
  4693   001368  EFB8  F009         	goto	u2021
  4694   00136C  EFBA  F009         	goto	u2020
  4695   001370                     u2021:
  4696   001370  EFBE  F009         	goto	l2410
  4697   001374                     u2020:
  4698   001374  80D8               	bsf	status,0,c
  4699   001376  3610               	rlcf	___fladd@grs^0,f,c
  4700   001378  EFC0  F009         	goto	l2412
  4701   00137C                     l2410:
  4702   00137C  90D8               	bcf	status,0,c
  4703   00137E  3610               	rlcf	___fladd@grs^0,f,c
  4704   001380                     l2412:
  4705   001380  500F               	movf	___fladd@bexp^0,w,c
  4706   001382  B4D8               	btfsc	status,2,c
  4707   001384  EFC6  F009         	goto	u2031
  4708   001388  EFC8  F009         	goto	u2030
  4709   00138C                     u2031:
  4710   00138C  EFC9  F009         	goto	l2416
  4711   001390                     u2030:
  4712   001390  060F               	decf	___fladd@bexp^0,f,c
  4713   001392                     l2416:
  4714   001392  AE03               	btfss	(___fladd@b+2)^0,7,c
  4715   001394  EFCE  F009         	goto	u2041
  4716   001398  EFD0  F009         	goto	u2040
  4717   00139C                     u2041:
  4718   00139C  EFA6  F009         	goto	l2400
  4719   0013A0                     u2040:
  4720   0013A0                     l2418:
  4721   0013A0  0E00               	movlw	0
  4722   0013A2  6E0E               	movwf	___fladd@aexp^0,c
  4723   0013A4  AE10               	btfss	___fladd@grs^0,7,c
  4724   0013A6  EFD7  F009         	goto	u2051
  4725   0013AA  EFD9  F009         	goto	u2050
  4726   0013AE                     u2051:
  4727   0013AE  EFF1  F009         	goto	l717
  4728   0013B2                     u2050:
  4729   0013B2  C010  F009         	movff	___fladd@grs,??___fladd
  4730   0013B6  0E7F               	movlw	127
  4731   0013B8  1609               	andwf	??___fladd^0,f,c
  4732   0013BA  B4D8               	btfsc	status,2,c
  4733   0013BC  EFE2  F009         	goto	u2061
  4734   0013C0  EFE4  F009         	goto	u2060
  4735   0013C4                     u2061:
  4736   0013C4  EFE8  F009         	goto	l718
  4737   0013C8                     u2060:
  4738   0013C8                     l2424:
  4739   0013C8  0E01               	movlw	1
  4740   0013CA  6E0E               	movwf	___fladd@aexp^0,c
  4741   0013CC  EFF1  F009         	goto	l717
  4742   0013D0                     l718:
  4743   0013D0  A001               	btfss	___fladd@b^0,0,c
  4744   0013D2  EFED  F009         	goto	u2071
  4745   0013D6  EFEF  F009         	goto	u2070
  4746   0013DA                     u2071:
  4747   0013DA  EFF1  F009         	goto	l717
  4748   0013DE                     u2070:
  4749   0013DE  EFE4  F009         	goto	l2424
  4750   0013E2                     l717:
  4751   0013E2  500E               	movf	___fladd@aexp^0,w,c
  4752   0013E4  B4D8               	btfsc	status,2,c
  4753   0013E6  EFF7  F009         	goto	u2081
  4754   0013EA  EFF9  F009         	goto	u2080
  4755   0013EE                     u2081:
  4756   0013EE  EF24  F00A         	goto	l2436
  4757   0013F2                     u2080:
  4758   0013F2  0E01               	movlw	1
  4759   0013F4  2601               	addwf	___fladd@b^0,f,c
  4760   0013F6  0E00               	movlw	0
  4761   0013F8  2202               	addwfc	(___fladd@b+1)^0,f,c
  4762   0013FA  2203               	addwfc	(___fladd@b+2)^0,f,c
  4763   0013FC  2204               	addwfc	(___fladd@b+3)^0,f,c
  4764   0013FE  A004               	btfss	(___fladd@b+3)^0,0,c
  4765   001400  EF04  F00A         	goto	u2091
  4766   001404  EF06  F00A         	goto	u2090
  4767   001408                     u2091:
  4768   001408  EF24  F00A         	goto	l2436
  4769   00140C                     u2090:
  4770   00140C  C001  F009         	movff	___fladd@b,??___fladd
  4771   001410  C002  F00A         	movff	___fladd@b+1,??___fladd+1
  4772   001414  C003  F00B         	movff	___fladd@b+2,??___fladd+2
  4773   001418  C004  F00C         	movff	___fladd@b+3,??___fladd+3
  4774   00141C  340C               	rlcf	(??___fladd+3)^0,w,c
  4775   00141E  320C               	rrcf	(??___fladd+3)^0,f,c
  4776   001420  320B               	rrcf	(??___fladd+2)^0,f,c
  4777   001422  320A               	rrcf	(??___fladd+1)^0,f,c
  4778   001424  3209               	rrcf	??___fladd^0,f,c
  4779   001426  C009  F001         	movff	??___fladd,___fladd@b
  4780   00142A  C00A  F002         	movff	??___fladd+1,___fladd@b+1
  4781   00142E  C00B  F003         	movff	??___fladd+2,___fladd@b+2
  4782   001432  C00C  F004         	movff	??___fladd+3,___fladd@b+3
  4783   001436  280F               	incf	___fladd@bexp^0,w,c
  4784   001438  B4D8               	btfsc	status,2,c
  4785   00143A  EF21  F00A         	goto	u2101
  4786   00143E  EF23  F00A         	goto	u2100
  4787   001442                     u2101:
  4788   001442  EF24  F00A         	goto	l2436
  4789   001446                     u2100:
  4790   001446  2A0F               	incf	___fladd@bexp^0,f,c
  4791   001448                     l2436:
  4792   001448  280F               	incf	___fladd@bexp^0,w,c
  4793   00144A  B4D8               	btfsc	status,2,c
  4794   00144C  EF2A  F00A         	goto	u2111
  4795   001450  EF2C  F00A         	goto	u2110
  4796   001454                     u2111:
  4797   001454  EF34  F00A         	goto	l2440
  4798   001458                     u2110:
  4799   001458  500F               	movf	___fladd@bexp^0,w,c
  4800   00145A  A4D8               	btfss	status,2,c
  4801   00145C  EF32  F00A         	goto	u2121
  4802   001460  EF34  F00A         	goto	u2120
  4803   001464                     u2121:
  4804   001464  EF46  F00A         	goto	l2444
  4805   001468                     u2120:
  4806   001468                     l2440:
  4807   001468  0E00               	movlw	0
  4808   00146A  6E01               	movwf	___fladd@b^0,c
  4809   00146C  0E00               	movlw	0
  4810   00146E  6E02               	movwf	(___fladd@b+1)^0,c
  4811   001470  0E00               	movlw	0
  4812   001472  6E03               	movwf	(___fladd@b+2)^0,c
  4813   001474  0E00               	movlw	0
  4814   001476  6E04               	movwf	(___fladd@b+3)^0,c
  4815   001478  500F               	movf	___fladd@bexp^0,w,c
  4816   00147A  A4D8               	btfss	status,2,c
  4817   00147C  EF42  F00A         	goto	u2131
  4818   001480  EF44  F00A         	goto	u2130
  4819   001484                     u2131:
  4820   001484  EF46  F00A         	goto	l2444
  4821   001488                     u2130:
  4822   001488  0E00               	movlw	0
  4823   00148A  6E0D               	movwf	___fladd@signs^0,c
  4824   00148C                     l2444:
  4825   00148C  A00F               	btfss	___fladd@bexp^0,0,c
  4826   00148E  EF4B  F00A         	goto	u2141
  4827   001492  EF4D  F00A         	goto	u2140
  4828   001496                     u2141:
  4829   001496  EF50  F00A         	goto	l2448
  4830   00149A                     u2140:
  4831   00149A  8E03               	bsf	(___fladd@b+2)^0,7,c
  4832   00149C  EF51  F00A         	goto	l2450
  4833   0014A0                     l2448:
  4834   0014A0  9E03               	bcf	(___fladd@b+2)^0,7,c
  4835   0014A2                     l2450:
  4836   0014A2  90D8               	bcf	status,0,c
  4837   0014A4  300F               	rrcf	___fladd@bexp^0,w,c
  4838   0014A6  6E04               	movwf	(___fladd@b+3)^0,c
  4839   0014A8  AE0D               	btfss	___fladd@signs^0,7,c
  4840   0014AA  EF59  F00A         	goto	u2151
  4841   0014AE  EF5B  F00A         	goto	u2150
  4842   0014B2                     u2151:
  4843   0014B2  EF5C  F00A         	goto	l2456
  4844   0014B6                     u2150:
  4845   0014B6  8E04               	bsf	(___fladd@b+3)^0,7,c
  4846   0014B8                     l2456:
  4847   0014B8  C001  F001         	movff	___fladd@b,?___fladd
  4848   0014BC  C002  F002         	movff	___fladd@b+1,?___fladd+1
  4849   0014C0  C003  F003         	movff	___fladd@b+2,?___fladd+2
  4850   0014C4  C004  F004         	movff	___fladd@b+3,?___fladd+3
  4851   0014C8                     l700:
  4852   0014C8  0012               	return		;funcret
  4853   0014CA                     __end_of___fladd:
  4854                           	callstack 0
  4855                           
  4856 ;; *************** function ___flneg *****************
  4857 ;; Defined at:
  4858 ;;		line 15 in file "C:\Program Files\Microchip\xc8\v2.41\pic\sources\c99\common\flneg.c"
  4859 ;; Parameters:    Size  Location     Type
  4860 ;;  f1              4    0[COMRAM] unsigned char 
  4861 ;; Auto vars:     Size  Location     Type
  4862 ;;		None
  4863 ;; Return value:  Size  Location     Type
  4864 ;;                  4    0[COMRAM] unsigned char 
  4865 ;; Registers used:
  4866 ;;		wreg, status,2, status,0
  4867 ;; Tracked objects:
  4868 ;;		On entry : 0/0
  4869 ;;		On exit  : 0/0
  4870 ;;		Unchanged: 0/0
  4871 ;; Data sizes:     COMRAM   BANK0   BANK1   BANK2   BANK3   BANK4   BANK5
  4872 ;;      Params:         4       0       0       0       0       0       0
  4873 ;;      Locals:         0       0       0       0       0       0       0
  4874 ;;      Temps:          0       0       0       0       0       0       0
  4875 ;;      Totals:         4       0       0       0       0       0       0
  4876 ;;Total ram usage:        4 bytes
  4877 ;; Hardware stack levels used: 1
  4878 ;; This function calls:
  4879 ;;		Nothing
  4880 ;; This function is called by:
  4881 ;;		_efgtoa
  4882 ;; This function uses a non-reentrant model
  4883 ;;
  4884                           
  4885                           	psect	text20
  4886   002A46                     __ptext20:
  4887                           	callstack 0
  4888   002A46                     ___flneg:
  4889                           	callstack 26
  4890   002A46  5001               	movf	___flneg@f1^0,w,c
  4891   002A48  1002               	iorwf	(___flneg@f1+1)^0,w,c
  4892   002A4A  1003               	iorwf	(___flneg@f1+2)^0,w,c
  4893   002A4C  1004               	iorwf	(___flneg@f1+3)^0,w,c
  4894   002A4E  B4D8               	btfsc	status,2,c
  4895   002A50  EF2C  F015         	goto	u2671
  4896   002A54  EF2E  F015         	goto	u2670
  4897   002A58                     u2671:
  4898   002A58  EF36  F015         	goto	l2790
  4899   002A5C                     u2670:
  4900   002A5C  0E00               	movlw	0
  4901   002A5E  1A01               	xorwf	___flneg@f1^0,f,c
  4902   002A60  0E00               	movlw	0
  4903   002A62  1A02               	xorwf	(___flneg@f1+1)^0,f,c
  4904   002A64  0E00               	movlw	0
  4905   002A66  1A03               	xorwf	(___flneg@f1+2)^0,f,c
  4906   002A68  0E80               	movlw	128
  4907   002A6A  1A04               	xorwf	(___flneg@f1+3)^0,f,c
  4908   002A6C                     l2790:
  4909   002A6C  C001  F001         	movff	___flneg@f1,?___flneg
  4910   002A70  C002  F002         	movff	___flneg@f1+1,?___flneg+1
  4911   002A74  C003  F003         	movff	___flneg@f1+2,?___flneg+2
  4912   002A78  C004  F004         	movff	___flneg@f1+3,?___flneg+3
  4913   002A7C  0012               	return		;funcret
  4914   002A7E                     __end_of___flneg:
  4915                           	callstack 0
  4916                           
  4917 ;; *************** function ___flmul *****************
  4918 ;; Defined at:
  4919 ;;		line 8 in file "C:\Program Files\Microchip\xc8\v2.41\pic\sources\c99\common\sprcmul.c"
  4920 ;; Parameters:    Size  Location     Type
  4921 ;;  b               4    0[COMRAM] unsigned char 
  4922 ;;  a               4    4[COMRAM] unsigned char 
  4923 ;; Auto vars:     Size  Location     Type
  4924 ;;  prod            4   19[COMRAM] struct .
  4925 ;;  grs             4   13[COMRAM] unsigned long 
  4926 ;;  temp            2   23[COMRAM] struct .
  4927 ;;  bexp            1   18[COMRAM] unsigned char 
  4928 ;;  aexp            1   17[COMRAM] unsigned char 
  4929 ;;  sign            1   12[COMRAM] unsigned char 
  4930 ;; Return value:  Size  Location     Type
  4931 ;;                  4    0[COMRAM] unsigned char 
  4932 ;; Registers used:
  4933 ;;		wreg, status,2, status,0, prodl, prodh
  4934 ;; Tracked objects:
  4935 ;;		On entry : 0/0
  4936 ;;		On exit  : 0/0
  4937 ;;		Unchanged: 0/0
  4938 ;; Data sizes:     COMRAM   BANK0   BANK1   BANK2   BANK3   BANK4   BANK5
  4939 ;;      Params:         8       0       0       0       0       0       0
  4940 ;;      Locals:        13       0       0       0       0       0       0
  4941 ;;      Temps:          4       0       0       0       0       0       0
  4942 ;;      Totals:        25       0       0       0       0       0       0
  4943 ;;Total ram usage:       25 bytes
  4944 ;; Hardware stack levels used: 1
  4945 ;; This function calls:
  4946 ;;		Nothing
  4947 ;; This function is called by:
  4948 ;;		_efgtoa
  4949 ;; This function uses a non-reentrant model
  4950 ;;
  4951                           
  4952                           	psect	text21
  4953   0014CA                     __ptext21:
  4954                           	callstack 0
  4955   0014CA                     ___flmul:
  4956                           	callstack 26
  4957   0014CA  5004               	movf	(___flmul@b+3)^0,w,c
  4958   0014CC  0B80               	andlw	128
  4959   0014CE  6E0D               	movwf	___flmul@sign^0,c
  4960   0014D0  5004               	movf	(___flmul@b+3)^0,w,c
  4961   0014D2  2404               	addwf	(___flmul@b+3)^0,w,c
  4962   0014D4  6E13               	movwf	___flmul@bexp^0,c
  4963   0014D6  AE03               	btfss	(___flmul@b+2)^0,7,c
  4964   0014D8  EF70  F00A         	goto	u2401
  4965   0014DC  EF72  F00A         	goto	u2400
  4966   0014E0                     u2401:
  4967   0014E0  EF73  F00A         	goto	l2618
  4968   0014E4                     u2400:
  4969   0014E4  8013               	bsf	___flmul@bexp^0,0,c
  4970   0014E6                     l2618:
  4971   0014E6  5013               	movf	___flmul@bexp^0,w,c
  4972   0014E8  B4D8               	btfsc	status,2,c
  4973   0014EA  EF79  F00A         	goto	u2411
  4974   0014EE  EF7B  F00A         	goto	u2410
  4975   0014F2                     u2411:
  4976   0014F2  EF8E  F00A         	goto	l2626
  4977   0014F6                     u2410:
  4978   0014F6  2813               	incf	___flmul@bexp^0,w,c
  4979   0014F8  A4D8               	btfss	status,2,c
  4980   0014FA  EF81  F00A         	goto	u2421
  4981   0014FE  EF83  F00A         	goto	u2420
  4982   001502                     u2421:
  4983   001502  EF8B  F00A         	goto	l2624
  4984   001506                     u2420:
  4985   001506  0E00               	movlw	0
  4986   001508  6E01               	movwf	___flmul@b^0,c
  4987   00150A  0E00               	movlw	0
  4988   00150C  6E02               	movwf	(___flmul@b+1)^0,c
  4989   00150E  0E00               	movlw	0
  4990   001510  6E03               	movwf	(___flmul@b+2)^0,c
  4991   001512  0E00               	movlw	0
  4992   001514  6E04               	movwf	(___flmul@b+3)^0,c
  4993   001516                     l2624:
  4994   001516  8E03               	bsf	(___flmul@b+2)^0,7,c
  4995   001518  EF96  F00A         	goto	l2628
  4996   00151C                     l2626:
  4997   00151C  0E00               	movlw	0
  4998   00151E  6E01               	movwf	___flmul@b^0,c
  4999   001520  0E00               	movlw	0
  5000   001522  6E02               	movwf	(___flmul@b+1)^0,c
  5001   001524  0E00               	movlw	0
  5002   001526  6E03               	movwf	(___flmul@b+2)^0,c
  5003   001528  0E00               	movlw	0
  5004   00152A  6E04               	movwf	(___flmul@b+3)^0,c
  5005   00152C                     l2628:
  5006   00152C  5008               	movf	(___flmul@a+3)^0,w,c
  5007   00152E  0B80               	andlw	128
  5008   001530  1A0D               	xorwf	___flmul@sign^0,f,c
  5009   001532  5008               	movf	(___flmul@a+3)^0,w,c
  5010   001534  2408               	addwf	(___flmul@a+3)^0,w,c
  5011   001536  6E12               	movwf	___flmul@aexp^0,c
  5012   001538  AE07               	btfss	(___flmul@a+2)^0,7,c
  5013   00153A  EFA1  F00A         	goto	u2431
  5014   00153E  EFA3  F00A         	goto	u2430
  5015   001542                     u2431:
  5016   001542  EFA4  F00A         	goto	l2636
  5017   001546                     u2430:
  5018   001546  8012               	bsf	___flmul@aexp^0,0,c
  5019   001548                     l2636:
  5020   001548  5012               	movf	___flmul@aexp^0,w,c
  5021   00154A  B4D8               	btfsc	status,2,c
  5022   00154C  EFAA  F00A         	goto	u2441
  5023   001550  EFAC  F00A         	goto	u2440
  5024   001554                     u2441:
  5025   001554  EFBF  F00A         	goto	l2644
  5026   001558                     u2440:
  5027   001558  2812               	incf	___flmul@aexp^0,w,c
  5028   00155A  A4D8               	btfss	status,2,c
  5029   00155C  EFB2  F00A         	goto	u2451
  5030   001560  EFB4  F00A         	goto	u2450
  5031   001564                     u2451:
  5032   001564  EFBC  F00A         	goto	l2642
  5033   001568                     u2450:
  5034   001568  0E00               	movlw	0
  5035   00156A  6E05               	movwf	___flmul@a^0,c
  5036   00156C  0E00               	movlw	0
  5037   00156E  6E06               	movwf	(___flmul@a+1)^0,c
  5038   001570  0E00               	movlw	0
  5039   001572  6E07               	movwf	(___flmul@a+2)^0,c
  5040   001574  0E00               	movlw	0
  5041   001576  6E08               	movwf	(___flmul@a+3)^0,c
  5042   001578                     l2642:
  5043   001578  8E07               	bsf	(___flmul@a+2)^0,7,c
  5044   00157A  EFC7  F00A         	goto	l777
  5045   00157E                     l2644:
  5046   00157E  0E00               	movlw	0
  5047   001580  6E05               	movwf	___flmul@a^0,c
  5048   001582  0E00               	movlw	0
  5049   001584  6E06               	movwf	(___flmul@a+1)^0,c
  5050   001586  0E00               	movlw	0
  5051   001588  6E07               	movwf	(___flmul@a+2)^0,c
  5052   00158A  0E00               	movlw	0
  5053   00158C  6E08               	movwf	(___flmul@a+3)^0,c
  5054   00158E                     l777:
  5055   00158E  5012               	movf	___flmul@aexp^0,w,c
  5056   001590  B4D8               	btfsc	status,2,c
  5057   001592  EFCD  F00A         	goto	u2461
  5058   001596  EFCF  F00A         	goto	u2460
  5059   00159A                     u2461:
  5060   00159A  EFD7  F00A         	goto	l2648
  5061   00159E                     u2460:
  5062   00159E  5013               	movf	___flmul@bexp^0,w,c
  5063   0015A0  A4D8               	btfss	status,2,c
  5064   0015A2  EFD5  F00A         	goto	u2471
  5065   0015A6  EFD7  F00A         	goto	u2470
  5066   0015AA                     u2471:
  5067   0015AA  EFE1  F00A         	goto	l2652
  5068   0015AE                     u2470:
  5069   0015AE                     l2648:
  5070   0015AE  0E00               	movlw	0
  5071   0015B0  6E01               	movwf	?___flmul^0,c
  5072   0015B2  0E00               	movlw	0
  5073   0015B4  6E02               	movwf	(?___flmul+1)^0,c
  5074   0015B6  0E00               	movlw	0
  5075   0015B8  6E03               	movwf	(?___flmul+2)^0,c
  5076   0015BA  0E00               	movlw	0
  5077   0015BC  6E04               	movwf	(?___flmul+3)^0,c
  5078   0015BE  EF79  F00C         	goto	l781
  5079   0015C2                     l2652:
  5080   0015C2  5007               	movf	(___flmul@a+2)^0,w,c
  5081   0015C4  0201               	mulwf	___flmul@b^0,c
  5082   0015C6  CFF3 F018          	movff	prodl,___flmul@temp
  5083   0015CA  CFF4 F019          	movff	prodh,___flmul@temp+1
  5084   0015CE  5018               	movf	___flmul@temp^0,w,c
  5085   0015D0  6E0E               	movwf	___flmul@grs^0,c
  5086   0015D2  6A0F               	clrf	(___flmul@grs+1)^0,c
  5087   0015D4  6A10               	clrf	(___flmul@grs+2)^0,c
  5088   0015D6  6A11               	clrf	(___flmul@grs+3)^0,c
  5089   0015D8  5019               	movf	(___flmul@temp+1)^0,w,c
  5090   0015DA  6E14               	movwf	___flmul@prod^0,c
  5091   0015DC  6A15               	clrf	(___flmul@prod+1)^0,c
  5092   0015DE  6A16               	clrf	(___flmul@prod+2)^0,c
  5093   0015E0  6A17               	clrf	(___flmul@prod+3)^0,c
  5094   0015E2  5006               	movf	(___flmul@a+1)^0,w,c
  5095   0015E4  0202               	mulwf	(___flmul@b+1)^0,c
  5096   0015E6  CFF3 F018          	movff	prodl,___flmul@temp
  5097   0015EA  CFF4 F019          	movff	prodh,___flmul@temp+1
  5098   0015EE  5018               	movf	___flmul@temp^0,w,c
  5099   0015F0  260E               	addwf	___flmul@grs^0,f,c
  5100   0015F2  0E00               	movlw	0
  5101   0015F4  220F               	addwfc	(___flmul@grs+1)^0,f,c
  5102   0015F6  2210               	addwfc	(___flmul@grs+2)^0,f,c
  5103   0015F8  2211               	addwfc	(___flmul@grs+3)^0,f,c
  5104   0015FA  5019               	movf	(___flmul@temp+1)^0,w,c
  5105   0015FC  2614               	addwf	___flmul@prod^0,f,c
  5106   0015FE  0E00               	movlw	0
  5107   001600  2215               	addwfc	(___flmul@prod+1)^0,f,c
  5108   001602  2216               	addwfc	(___flmul@prod+2)^0,f,c
  5109   001604  2217               	addwfc	(___flmul@prod+3)^0,f,c
  5110   001606  5005               	movf	___flmul@a^0,w,c
  5111   001608  0203               	mulwf	(___flmul@b+2)^0,c
  5112   00160A  CFF3 F018          	movff	prodl,___flmul@temp
  5113   00160E  CFF4 F019          	movff	prodh,___flmul@temp+1
  5114   001612  5018               	movf	___flmul@temp^0,w,c
  5115   001614  260E               	addwf	___flmul@grs^0,f,c
  5116   001616  0E00               	movlw	0
  5117   001618  220F               	addwfc	(___flmul@grs+1)^0,f,c
  5118   00161A  2210               	addwfc	(___flmul@grs+2)^0,f,c
  5119   00161C  2211               	addwfc	(___flmul@grs+3)^0,f,c
  5120   00161E  5019               	movf	(___flmul@temp+1)^0,w,c
  5121   001620  2614               	addwf	___flmul@prod^0,f,c
  5122   001622  0E00               	movlw	0
  5123   001624  2215               	addwfc	(___flmul@prod+1)^0,f,c
  5124   001626  2216               	addwfc	(___flmul@prod+2)^0,f,c
  5125   001628  2217               	addwfc	(___flmul@prod+3)^0,f,c
  5126   00162A  C010  F011         	movff	___flmul@grs+2,___flmul@grs+3
  5127   00162E  C00F  F010         	movff	___flmul@grs+1,___flmul@grs+2
  5128   001632  C00E  F00F         	movff	___flmul@grs,___flmul@grs+1
  5129   001636  6A0E               	clrf	___flmul@grs^0,c
  5130   001638  5005               	movf	___flmul@a^0,w,c
  5131   00163A  0202               	mulwf	(___flmul@b+1)^0,c
  5132   00163C  CFF3 F018          	movff	prodl,___flmul@temp
  5133   001640  CFF4 F019          	movff	prodh,___flmul@temp+1
  5134   001644  5018               	movf	___flmul@temp^0,w,c
  5135   001646  260E               	addwf	___flmul@grs^0,f,c
  5136   001648  5019               	movf	(___flmul@temp+1)^0,w,c
  5137   00164A  220F               	addwfc	(___flmul@grs+1)^0,f,c
  5138   00164C  0E00               	movlw	0
  5139   00164E  2210               	addwfc	(___flmul@grs+2)^0,f,c
  5140   001650  0E00               	movlw	0
  5141   001652  2211               	addwfc	(___flmul@grs+3)^0,f,c
  5142   001654  5006               	movf	(___flmul@a+1)^0,w,c
  5143   001656  0201               	mulwf	___flmul@b^0,c
  5144   001658  CFF3 F018          	movff	prodl,___flmul@temp
  5145   00165C  CFF4 F019          	movff	prodh,___flmul@temp+1
  5146   001660  5018               	movf	___flmul@temp^0,w,c
  5147   001662  260E               	addwf	___flmul@grs^0,f,c
  5148   001664  5019               	movf	(___flmul@temp+1)^0,w,c
  5149   001666  220F               	addwfc	(___flmul@grs+1)^0,f,c
  5150   001668  0E00               	movlw	0
  5151   00166A  2210               	addwfc	(___flmul@grs+2)^0,f,c
  5152   00166C  0E00               	movlw	0
  5153   00166E  2211               	addwfc	(___flmul@grs+3)^0,f,c
  5154   001670  C010  F011         	movff	___flmul@grs+2,___flmul@grs+3
  5155   001674  C00F  F010         	movff	___flmul@grs+1,___flmul@grs+2
  5156   001678  C00E  F00F         	movff	___flmul@grs,___flmul@grs+1
  5157   00167C  6A0E               	clrf	___flmul@grs^0,c
  5158   00167E  5005               	movf	___flmul@a^0,w,c
  5159   001680  0201               	mulwf	___flmul@b^0,c
  5160   001682  CFF3 F018          	movff	prodl,___flmul@temp
  5161   001686  CFF4 F019          	movff	prodh,___flmul@temp+1
  5162   00168A  5018               	movf	___flmul@temp^0,w,c
  5163   00168C  260E               	addwf	___flmul@grs^0,f,c
  5164   00168E  5019               	movf	(___flmul@temp+1)^0,w,c
  5165   001690  220F               	addwfc	(___flmul@grs+1)^0,f,c
  5166   001692  0E00               	movlw	0
  5167   001694  2210               	addwfc	(___flmul@grs+2)^0,f,c
  5168   001696  0E00               	movlw	0
  5169   001698  2211               	addwfc	(___flmul@grs+3)^0,f,c
  5170   00169A  5007               	movf	(___flmul@a+2)^0,w,c
  5171   00169C  0202               	mulwf	(___flmul@b+1)^0,c
  5172   00169E  CFF3 F018          	movff	prodl,___flmul@temp
  5173   0016A2  CFF4 F019          	movff	prodh,___flmul@temp+1
  5174   0016A6  5018               	movf	___flmul@temp^0,w,c
  5175   0016A8  2614               	addwf	___flmul@prod^0,f,c
  5176   0016AA  5019               	movf	(___flmul@temp+1)^0,w,c
  5177   0016AC  2215               	addwfc	(___flmul@prod+1)^0,f,c
  5178   0016AE  0E00               	movlw	0
  5179   0016B0  2216               	addwfc	(___flmul@prod+2)^0,f,c
  5180   0016B2  0E00               	movlw	0
  5181   0016B4  2217               	addwfc	(___flmul@prod+3)^0,f,c
  5182   0016B6  5006               	movf	(___flmul@a+1)^0,w,c
  5183   0016B8  0203               	mulwf	(___flmul@b+2)^0,c
  5184   0016BA  CFF3 F018          	movff	prodl,___flmul@temp
  5185   0016BE  CFF4 F019          	movff	prodh,___flmul@temp+1
  5186   0016C2  5018               	movf	___flmul@temp^0,w,c
  5187   0016C4  2614               	addwf	___flmul@prod^0,f,c
  5188   0016C6  5019               	movf	(___flmul@temp+1)^0,w,c
  5189   0016C8  2215               	addwfc	(___flmul@prod+1)^0,f,c
  5190   0016CA  0E00               	movlw	0
  5191   0016CC  2216               	addwfc	(___flmul@prod+2)^0,f,c
  5192   0016CE  0E00               	movlw	0
  5193   0016D0  2217               	addwfc	(___flmul@prod+3)^0,f,c
  5194   0016D2  5007               	movf	(___flmul@a+2)^0,w,c
  5195   0016D4  0203               	mulwf	(___flmul@b+2)^0,c
  5196   0016D6  CFF3 F018          	movff	prodl,___flmul@temp
  5197   0016DA  CFF4 F019          	movff	prodh,___flmul@temp+1
  5198   0016DE  5018               	movf	___flmul@temp^0,w,c
  5199   0016E0  6E09               	movwf	??___flmul^0,c
  5200   0016E2  5019               	movf	(___flmul@temp+1)^0,w,c
  5201   0016E4  6E0A               	movwf	(??___flmul+1)^0,c
  5202   0016E6  6A0B               	clrf	(??___flmul+2)^0,c
  5203   0016E8  6A0C               	clrf	(??___flmul+3)^0,c
  5204   0016EA  C00B  F00C         	movff	??___flmul+2,??___flmul+3
  5205   0016EE  C00A  F00B         	movff	??___flmul+1,??___flmul+2
  5206   0016F2  C009  F00A         	movff	??___flmul,??___flmul+1
  5207   0016F6  6A09               	clrf	??___flmul^0,c
  5208   0016F8  5009               	movf	??___flmul^0,w,c
  5209   0016FA  2614               	addwf	___flmul@prod^0,f,c
  5210   0016FC  500A               	movf	(??___flmul+1)^0,w,c
  5211   0016FE  2215               	addwfc	(___flmul@prod+1)^0,f,c
  5212   001700  500B               	movf	(??___flmul+2)^0,w,c
  5213   001702  2216               	addwfc	(___flmul@prod+2)^0,f,c
  5214   001704  500C               	movf	(??___flmul+3)^0,w,c
  5215   001706  2217               	addwfc	(___flmul@prod+3)^0,f,c
  5216   001708  C00E  F009         	movff	___flmul@grs,??___flmul
  5217   00170C  C00F  F00A         	movff	___flmul@grs+1,??___flmul+1
  5218   001710  C010  F00B         	movff	___flmul@grs+2,??___flmul+2
  5219   001714  C011  F00C         	movff	___flmul@grs+3,??___flmul+3
  5220   001718  0E19               	movlw	25
  5221   00171A  EF94  F00B         	goto	u2480
  5222   00171E                     u2485:
  5223   00171E  90D8               	bcf	status,0,c
  5224   001720  320C               	rrcf	(??___flmul+3)^0,f,c
  5225   001722  320B               	rrcf	(??___flmul+2)^0,f,c
  5226   001724  320A               	rrcf	(??___flmul+1)^0,f,c
  5227   001726  3209               	rrcf	??___flmul^0,f,c
  5228   001728                     u2480:
  5229   001728  2EE8               	decfsz	wreg,f,c
  5230   00172A  EF8F  F00B         	goto	u2485
  5231   00172E  5009               	movf	??___flmul^0,w,c
  5232   001730  2614               	addwf	___flmul@prod^0,f,c
  5233   001732  500A               	movf	(??___flmul+1)^0,w,c
  5234   001734  2215               	addwfc	(___flmul@prod+1)^0,f,c
  5235   001736  500B               	movf	(??___flmul+2)^0,w,c
  5236   001738  2216               	addwfc	(___flmul@prod+2)^0,f,c
  5237   00173A  500C               	movf	(??___flmul+3)^0,w,c
  5238   00173C  2217               	addwfc	(___flmul@prod+3)^0,f,c
  5239   00173E  C010  F011         	movff	___flmul@grs+2,___flmul@grs+3
  5240   001742  C00F  F010         	movff	___flmul@grs+1,___flmul@grs+2
  5241   001746  C00E  F00F         	movff	___flmul@grs,___flmul@grs+1
  5242   00174A  6A0E               	clrf	___flmul@grs^0,c
  5243   00174C  5012               	movf	___flmul@aexp^0,w,c
  5244   00174E  C013  F009         	movff	___flmul@bexp,??___flmul
  5245   001752  6A0A               	clrf	(??___flmul+1)^0,c
  5246   001754  2609               	addwf	??___flmul^0,f,c
  5247   001756  0E00               	movlw	0
  5248   001758  220A               	addwfc	(??___flmul+1)^0,f,c
  5249   00175A  0E82               	movlw	130
  5250   00175C  2409               	addwf	??___flmul^0,w,c
  5251   00175E  6E18               	movwf	___flmul@temp^0,c
  5252   001760  0EFF               	movlw	255
  5253   001762  200A               	addwfc	(??___flmul+1)^0,w,c
  5254   001764  6E19               	movwf	(___flmul@temp+1)^0,c
  5255   001766  EFCA  F00B         	goto	l2700
  5256   00176A                     l2694:
  5257   00176A  90D8               	bcf	status,0,c
  5258   00176C  3614               	rlcf	___flmul@prod^0,f,c
  5259   00176E  3615               	rlcf	(___flmul@prod+1)^0,f,c
  5260   001770  3616               	rlcf	(___flmul@prod+2)^0,f,c
  5261   001772  3617               	rlcf	(___flmul@prod+3)^0,f,c
  5262   001774  AE11               	btfss	(___flmul@grs+3)^0,7,c
  5263   001776  EFBF  F00B         	goto	u2491
  5264   00177A  EFC1  F00B         	goto	u2490
  5265   00177E                     u2491:
  5266   00177E  EFC2  F00B         	goto	l784
  5267   001782                     u2490:
  5268   001782  8014               	bsf	___flmul@prod^0,0,c
  5269   001784                     l784:
  5270   001784  90D8               	bcf	status,0,c
  5271   001786  360E               	rlcf	___flmul@grs^0,f,c
  5272   001788  360F               	rlcf	(___flmul@grs+1)^0,f,c
  5273   00178A  3610               	rlcf	(___flmul@grs+2)^0,f,c
  5274   00178C  3611               	rlcf	(___flmul@grs+3)^0,f,c
  5275   00178E  0618               	decf	___flmul@temp^0,f,c
  5276   001790  A0D8               	btfss	status,0,c
  5277   001792  0619               	decf	(___flmul@temp+1)^0,f,c
  5278   001794                     l2700:
  5279   001794  AE16               	btfss	(___flmul@prod+2)^0,7,c
  5280   001796  EFCF  F00B         	goto	u2501
  5281   00179A  EFD1  F00B         	goto	u2500
  5282   00179E                     u2501:
  5283   00179E  EFB5  F00B         	goto	l2694
  5284   0017A2                     u2500:
  5285   0017A2  0E00               	movlw	0
  5286   0017A4  6E12               	movwf	___flmul@aexp^0,c
  5287   0017A6  AE11               	btfss	(___flmul@grs+3)^0,7,c
  5288   0017A8  EFD8  F00B         	goto	u2511
  5289   0017AC  EFDA  F00B         	goto	u2510
  5290   0017B0                     u2511:
  5291   0017B0  EFFE  F00B         	goto	l786
  5292   0017B4                     u2510:
  5293   0017B4  0EFF               	movlw	255
  5294   0017B6  140E               	andwf	___flmul@grs^0,w,c
  5295   0017B8  6E09               	movwf	??___flmul^0,c
  5296   0017BA  0EFF               	movlw	255
  5297   0017BC  140F               	andwf	(___flmul@grs+1)^0,w,c
  5298   0017BE  6E0A               	movwf	(??___flmul+1)^0,c
  5299   0017C0  0EFF               	movlw	255
  5300   0017C2  1410               	andwf	(___flmul@grs+2)^0,w,c
  5301   0017C4  6E0B               	movwf	(??___flmul+2)^0,c
  5302   0017C6  0E7F               	movlw	127
  5303   0017C8  1411               	andwf	(___flmul@grs+3)^0,w,c
  5304   0017CA  6E0C               	movwf	(??___flmul+3)^0,c
  5305   0017CC  5009               	movf	??___flmul^0,w,c
  5306   0017CE  100A               	iorwf	(??___flmul+1)^0,w,c
  5307   0017D0  100B               	iorwf	(??___flmul+2)^0,w,c
  5308   0017D2  100C               	iorwf	(??___flmul+3)^0,w,c
  5309   0017D4  B4D8               	btfsc	status,2,c
  5310   0017D6  EFEF  F00B         	goto	u2521
  5311   0017DA  EFF1  F00B         	goto	u2520
  5312   0017DE                     u2521:
  5313   0017DE  EFF5  F00B         	goto	l787
  5314   0017E2                     u2520:
  5315   0017E2                     l2708:
  5316   0017E2  0E01               	movlw	1
  5317   0017E4  6E12               	movwf	___flmul@aexp^0,c
  5318   0017E6  EFFE  F00B         	goto	l786
  5319   0017EA                     l787:
  5320   0017EA  A014               	btfss	___flmul@prod^0,0,c
  5321   0017EC  EFFA  F00B         	goto	u2531
  5322   0017F0  EFFC  F00B         	goto	u2530
  5323   0017F4                     u2531:
  5324   0017F4  EFFE  F00B         	goto	l786
  5325   0017F8                     u2530:
  5326   0017F8  EFF1  F00B         	goto	l2708
  5327   0017FC                     l786:
  5328   0017FC  5012               	movf	___flmul@aexp^0,w,c
  5329   0017FE  B4D8               	btfsc	status,2,c
  5330   001800  EF04  F00C         	goto	u2541
  5331   001804  EF06  F00C         	goto	u2540
  5332   001808                     u2541:
  5333   001808  EF2A  F00C         	goto	l2720
  5334   00180C                     u2540:
  5335   00180C  0E01               	movlw	1
  5336   00180E  2614               	addwf	___flmul@prod^0,f,c
  5337   001810  0E00               	movlw	0
  5338   001812  2215               	addwfc	(___flmul@prod+1)^0,f,c
  5339   001814  2216               	addwfc	(___flmul@prod+2)^0,f,c
  5340   001816  2217               	addwfc	(___flmul@prod+3)^0,f,c
  5341   001818  A017               	btfss	(___flmul@prod+3)^0,0,c
  5342   00181A  EF11  F00C         	goto	u2551
  5343   00181E  EF13  F00C         	goto	u2550
  5344   001822                     u2551:
  5345   001822  EF2A  F00C         	goto	l2720
  5346   001826                     u2550:
  5347   001826  C014  F009         	movff	___flmul@prod,??___flmul
  5348   00182A  C015  F00A         	movff	___flmul@prod+1,??___flmul+1
  5349   00182E  C016  F00B         	movff	___flmul@prod+2,??___flmul+2
  5350   001832  C017  F00C         	movff	___flmul@prod+3,??___flmul+3
  5351   001836  340C               	rlcf	(??___flmul+3)^0,w,c
  5352   001838  320C               	rrcf	(??___flmul+3)^0,f,c
  5353   00183A  320B               	rrcf	(??___flmul+2)^0,f,c
  5354   00183C  320A               	rrcf	(??___flmul+1)^0,f,c
  5355   00183E  3209               	rrcf	??___flmul^0,f,c
  5356   001840  C009  F014         	movff	??___flmul,___flmul@prod
  5357   001844  C00A  F015         	movff	??___flmul+1,___flmul@prod+1
  5358   001848  C00B  F016         	movff	??___flmul+2,___flmul@prod+2
  5359   00184C  C00C  F017         	movff	??___flmul+3,___flmul@prod+3
  5360   001850  4A18               	infsnz	___flmul@temp^0,f,c
  5361   001852  2A19               	incf	(___flmul@temp+1)^0,f,c
  5362   001854                     l2720:
  5363   001854  BE19               	btfsc	(___flmul@temp+1)^0,7,c
  5364   001856  EF35  F00C         	goto	u2561
  5365   00185A  5019               	movf	(___flmul@temp+1)^0,w,c
  5366   00185C  E108               	bnz	u2560
  5367   00185E  2818               	incf	___flmul@temp^0,w,c
  5368   001860  A0D8               	btfss	status,0,c
  5369   001862  EF35  F00C         	goto	u2561
  5370   001866  EF37  F00C         	goto	u2560
  5371   00186A                     u2561:
  5372   00186A  EF41  F00C         	goto	l2724
  5373   00186E                     u2560:
  5374   00186E  0E00               	movlw	0
  5375   001870  6E14               	movwf	___flmul@prod^0,c
  5376   001872  0E00               	movlw	0
  5377   001874  6E15               	movwf	(___flmul@prod+1)^0,c
  5378   001876  0E80               	movlw	128
  5379   001878  6E16               	movwf	(___flmul@prod+2)^0,c
  5380   00187A  0E7F               	movlw	127
  5381   00187C  6E17               	movwf	(___flmul@prod+3)^0,c
  5382   00187E  EF6F  F00C         	goto	l2736
  5383   001882                     l2724:
  5384   001882  BE19               	btfsc	(___flmul@temp+1)^0,7,c
  5385   001884  EF4E  F00C         	goto	u2570
  5386   001888  5019               	movf	(___flmul@temp+1)^0,w,c
  5387   00188A  E106               	bnz	u2571
  5388   00188C  0418               	decf	___flmul@temp^0,w,c
  5389   00188E  B0D8               	btfsc	status,0,c
  5390   001890  EF4C  F00C         	goto	u2571
  5391   001894  EF4E  F00C         	goto	u2570
  5392   001898                     u2571:
  5393   001898  EF5A  F00C         	goto	l794
  5394   00189C                     u2570:
  5395   00189C  0E00               	movlw	0
  5396   00189E  6E14               	movwf	___flmul@prod^0,c
  5397   0018A0  0E00               	movlw	0
  5398   0018A2  6E15               	movwf	(___flmul@prod+1)^0,c
  5399   0018A4  0E00               	movlw	0
  5400   0018A6  6E16               	movwf	(___flmul@prod+2)^0,c
  5401   0018A8  0E00               	movlw	0
  5402   0018AA  6E17               	movwf	(___flmul@prod+3)^0,c
  5403   0018AC  0E00               	movlw	0
  5404   0018AE  6E0D               	movwf	___flmul@sign^0,c
  5405   0018B0  EF6F  F00C         	goto	l2736
  5406   0018B4                     l794:
  5407   0018B4  C018  F013         	movff	___flmul@temp,___flmul@bexp
  5408   0018B8  0EFF               	movlw	255
  5409   0018BA  1614               	andwf	___flmul@prod^0,f,c
  5410   0018BC  0EFF               	movlw	255
  5411   0018BE  1615               	andwf	(___flmul@prod+1)^0,f,c
  5412   0018C0  0E7F               	movlw	127
  5413   0018C2  1616               	andwf	(___flmul@prod+2)^0,f,c
  5414   0018C4  0E00               	movlw	0
  5415   0018C6  1617               	andwf	(___flmul@prod+3)^0,f,c
  5416   0018C8  A013               	btfss	___flmul@bexp^0,0,c
  5417   0018CA  EF69  F00C         	goto	u2581
  5418   0018CE  EF6B  F00C         	goto	u2580
  5419   0018D2                     u2581:
  5420   0018D2  EF6C  F00C         	goto	l2734
  5421   0018D6                     u2580:
  5422   0018D6  8E16               	bsf	(___flmul@prod+2)^0,7,c
  5423   0018D8                     l2734:
  5424   0018D8  90D8               	bcf	status,0,c
  5425   0018DA  3013               	rrcf	___flmul@bexp^0,w,c
  5426   0018DC  6E17               	movwf	(___flmul@prod+3)^0,c
  5427   0018DE                     l2736:
  5428   0018DE  500D               	movf	___flmul@sign^0,w,c
  5429   0018E0  1217               	iorwf	(___flmul@prod+3)^0,f,c
  5430   0018E2  C014  F001         	movff	___flmul@prod,?___flmul
  5431   0018E6  C015  F002         	movff	___flmul@prod+1,?___flmul+1
  5432   0018EA  C016  F003         	movff	___flmul@prod+2,?___flmul+2
  5433   0018EE  C017  F004         	movff	___flmul@prod+3,?___flmul+3
  5434   0018F2                     l781:
  5435   0018F2  0012               	return		;funcret
  5436   0018F4                     __end_of___flmul:
  5437                           	callstack 0
  5438                           
  5439 ;; *************** function ___flge *****************
  5440 ;; Defined at:
  5441 ;;		line 4 in file "C:\Program Files\Microchip\xc8\v2.41\pic\sources\c99\common\flge.c"
  5442 ;; Parameters:    Size  Location     Type
  5443 ;;  ff1             4   25[COMRAM] unsigned char 
  5444 ;;  ff2             4   29[COMRAM] unsigned char 
  5445 ;; Auto vars:     Size  Location     Type
  5446 ;;		None
  5447 ;; Return value:  Size  Location     Type
  5448 ;;		None               void
  5449 ;; Registers used:
  5450 ;;		wreg, status,2, status,0
  5451 ;; Tracked objects:
  5452 ;;		On entry : 0/0
  5453 ;;		On exit  : 0/0
  5454 ;;		Unchanged: 0/0
  5455 ;; Data sizes:     COMRAM   BANK0   BANK1   BANK2   BANK3   BANK4   BANK5
  5456 ;;      Params:         8       0       0       0       0       0       0
  5457 ;;      Locals:         0       0       0       0       0       0       0
  5458 ;;      Temps:          4       0       0       0       0       0       0
  5459 ;;      Totals:        12       0       0       0       0       0       0
  5460 ;;Total ram usage:       12 bytes
  5461 ;; Hardware stack levels used: 1
  5462 ;; This function calls:
  5463 ;;		Nothing
  5464 ;; This function is called by:
  5465 ;;		_main
  5466 ;;		_efgtoa
  5467 ;; This function uses a non-reentrant model
  5468 ;;
  5469                           
  5470                           	psect	text22
  5471   002302                     __ptext22:
  5472                           	callstack 0
  5473   002302                     ___flge:
  5474                           	callstack 26
  5475   002302  0E00               	movlw	0
  5476   002304  141A               	andwf	___flge@ff1^0,w,c
  5477   002306  6E22               	movwf	??___flge^0,c
  5478   002308  0E00               	movlw	0
  5479   00230A  141B               	andwf	(___flge@ff1+1)^0,w,c
  5480   00230C  6E23               	movwf	(??___flge+1)^0,c
  5481   00230E  0E80               	movlw	128
  5482   002310  141C               	andwf	(___flge@ff1+2)^0,w,c
  5483   002312  6E24               	movwf	(??___flge+2)^0,c
  5484   002314  0E7F               	movlw	127
  5485   002316  141D               	andwf	(___flge@ff1+3)^0,w,c
  5486   002318  6E25               	movwf	(??___flge+3)^0,c
  5487   00231A  5022               	movf	??___flge^0,w,c
  5488   00231C  1023               	iorwf	(??___flge+1)^0,w,c
  5489   00231E  1024               	iorwf	(??___flge+2)^0,w,c
  5490   002320  1025               	iorwf	(??___flge+3)^0,w,c
  5491   002322  A4D8               	btfss	status,2,c
  5492   002324  EF96  F011         	goto	u2621
  5493   002328  EF98  F011         	goto	u2620
  5494   00232C                     u2621:
  5495   00232C  EFA0  F011         	goto	l2768
  5496   002330                     u2620:
  5497   002330  0E00               	movlw	0
  5498   002332  6E1A               	movwf	___flge@ff1^0,c
  5499   002334  0E00               	movlw	0
  5500   002336  6E1B               	movwf	(___flge@ff1+1)^0,c
  5501   002338  0E00               	movlw	0
  5502   00233A  6E1C               	movwf	(___flge@ff1+2)^0,c
  5503   00233C  0E00               	movlw	0
  5504   00233E  6E1D               	movwf	(___flge@ff1+3)^0,c
  5505   002340                     l2768:
  5506   002340  0E00               	movlw	0
  5507   002342  141E               	andwf	___flge@ff2^0,w,c
  5508   002344  6E22               	movwf	??___flge^0,c
  5509   002346  0E00               	movlw	0
  5510   002348  141F               	andwf	(___flge@ff2+1)^0,w,c
  5511   00234A  6E23               	movwf	(??___flge+1)^0,c
  5512   00234C  0E80               	movlw	128
  5513   00234E  1420               	andwf	(___flge@ff2+2)^0,w,c
  5514   002350  6E24               	movwf	(??___flge+2)^0,c
  5515   002352  0E7F               	movlw	127
  5516   002354  1421               	andwf	(___flge@ff2+3)^0,w,c
  5517   002356  6E25               	movwf	(??___flge+3)^0,c
  5518   002358  5022               	movf	??___flge^0,w,c
  5519   00235A  1023               	iorwf	(??___flge+1)^0,w,c
  5520   00235C  1024               	iorwf	(??___flge+2)^0,w,c
  5521   00235E  1025               	iorwf	(??___flge+3)^0,w,c
  5522   002360  A4D8               	btfss	status,2,c
  5523   002362  EFB5  F011         	goto	u2631
  5524   002366  EFB7  F011         	goto	u2630
  5525   00236A                     u2631:
  5526   00236A  EFBF  F011         	goto	l2772
  5527   00236E                     u2630:
  5528   00236E  0E00               	movlw	0
  5529   002370  6E1E               	movwf	___flge@ff2^0,c
  5530   002372  0E00               	movlw	0
  5531   002374  6E1F               	movwf	(___flge@ff2+1)^0,c
  5532   002376  0E00               	movlw	0
  5533   002378  6E20               	movwf	(___flge@ff2+2)^0,c
  5534   00237A  0E00               	movlw	0
  5535   00237C  6E21               	movwf	(___flge@ff2+3)^0,c
  5536   00237E                     l2772:
  5537   00237E  AE1D               	btfss	(___flge@ff1+3)^0,7,c
  5538   002380  EFC4  F011         	goto	u2641
  5539   002384  EFC6  F011         	goto	u2640
  5540   002388                     u2641:
  5541   002388  EFCF  F011         	goto	l2776
  5542   00238C                     u2640:
  5543   00238C  6C1A               	negf	___flge@ff1^0,c
  5544   00238E  1E1B               	comf	(___flge@ff1+1)^0,f,c
  5545   002390  B0D8               	btfsc	status,0,c
  5546   002392  2A1B               	incf	(___flge@ff1+1)^0,f,c
  5547   002394  1E1C               	comf	(___flge@ff1+2)^0,f,c
  5548   002396  B0D8               	btfsc	status,0,c
  5549   002398  2A1C               	incf	(___flge@ff1+2)^0,f,c
  5550   00239A  0E80               	movlw	128
  5551   00239C  561D               	subfwb	(___flge@ff1+3)^0,f,c
  5552   00239E                     l2776:
  5553   00239E  AE21               	btfss	(___flge@ff2+3)^0,7,c
  5554   0023A0  EFD4  F011         	goto	u2651
  5555   0023A4  EFD6  F011         	goto	u2650
  5556   0023A8                     u2651:
  5557   0023A8  EFDF  F011         	goto	l428
  5558   0023AC                     u2650:
  5559   0023AC  6C1E               	negf	___flge@ff2^0,c
  5560   0023AE  1E1F               	comf	(___flge@ff2+1)^0,f,c
  5561   0023B0  B0D8               	btfsc	status,0,c
  5562   0023B2  2A1F               	incf	(___flge@ff2+1)^0,f,c
  5563   0023B4  1E20               	comf	(___flge@ff2+2)^0,f,c
  5564   0023B6  B0D8               	btfsc	status,0,c
  5565   0023B8  2A20               	incf	(___flge@ff2+2)^0,f,c
  5566   0023BA  0E80               	movlw	128
  5567   0023BC  5621               	subfwb	(___flge@ff2+3)^0,f,c
  5568   0023BE                     l428:
  5569   0023BE  0E00               	movlw	0
  5570   0023C0  1A1A               	xorwf	___flge@ff1^0,f,c
  5571   0023C2  0E00               	movlw	0
  5572   0023C4  1A1B               	xorwf	(___flge@ff1+1)^0,f,c
  5573   0023C6  0E00               	movlw	0
  5574   0023C8  1A1C               	xorwf	(___flge@ff1+2)^0,f,c
  5575   0023CA  0E80               	movlw	128
  5576   0023CC  1A1D               	xorwf	(___flge@ff1+3)^0,f,c
  5577   0023CE  0E00               	movlw	0
  5578   0023D0  1A1E               	xorwf	___flge@ff2^0,f,c
  5579   0023D2  0E00               	movlw	0
  5580   0023D4  1A1F               	xorwf	(___flge@ff2+1)^0,f,c
  5581   0023D6  0E00               	movlw	0
  5582   0023D8  1A20               	xorwf	(___flge@ff2+2)^0,f,c
  5583   0023DA  0E80               	movlw	128
  5584   0023DC  1A21               	xorwf	(___flge@ff2+3)^0,f,c
  5585   0023DE  501E               	movf	___flge@ff2^0,w,c
  5586   0023E0  5C1A               	subwf	___flge@ff1^0,w,c
  5587   0023E2  501F               	movf	(___flge@ff2+1)^0,w,c
  5588   0023E4  581B               	subwfb	(___flge@ff1+1)^0,w,c
  5589   0023E6  5020               	movf	(___flge@ff2+2)^0,w,c
  5590   0023E8  581C               	subwfb	(___flge@ff1+2)^0,w,c
  5591   0023EA  5021               	movf	(___flge@ff2+3)^0,w,c
  5592   0023EC  581D               	subwfb	(___flge@ff1+3)^0,w,c
  5593   0023EE  B0D8               	btfsc	status,0,c
  5594   0023F0  EFFC  F011         	goto	u2661
  5595   0023F4  EFFE  F011         	goto	u2660
  5596   0023F8                     u2661:
  5597   0023F8  EF01  F012         	goto	l2782
  5598   0023FC                     u2660:
  5599   0023FC  90D8               	bcf	status,0,c
  5600   0023FE  EF02  F012         	goto	l433
  5601   002402                     l2782:
  5602   002402  80D8               	bsf	status,0,c
  5603   002404                     l433:
  5604   002404  0012               	return		;funcret
  5605   002406                     __end_of___flge:
  5606                           	callstack 0
  5607                           
  5608 ;; *************** function ___fleq *****************
  5609 ;; Defined at:
  5610 ;;		line 4 in file "C:\Program Files\Microchip\xc8\v2.41\pic\sources\c99\common\fleq.c"
  5611 ;; Parameters:    Size  Location     Type
  5612 ;;  ff1             4    0[COMRAM] unsigned char 
  5613 ;;  ff2             4    4[COMRAM] unsigned char 
  5614 ;; Auto vars:     Size  Location     Type
  5615 ;;		None
  5616 ;; Return value:  Size  Location     Type
  5617 ;;		None               void
  5618 ;; Registers used:
  5619 ;;		wreg, status,2, status,0
  5620 ;; Tracked objects:
  5621 ;;		On entry : 0/0
  5622 ;;		On exit  : 0/0
  5623 ;;		Unchanged: 0/0
  5624 ;; Data sizes:     COMRAM   BANK0   BANK1   BANK2   BANK3   BANK4   BANK5
  5625 ;;      Params:         8       0       0       0       0       0       0
  5626 ;;      Locals:         0       0       0       0       0       0       0
  5627 ;;      Temps:          4       0       0       0       0       0       0
  5628 ;;      Totals:        12       0       0       0       0       0       0
  5629 ;;Total ram usage:       12 bytes
  5630 ;; Hardware stack levels used: 1
  5631 ;; This function calls:
  5632 ;;		Nothing
  5633 ;; This function is called by:
  5634 ;;		_efgtoa
  5635 ;; This function uses a non-reentrant model
  5636 ;;
  5637                           
  5638                           	psect	text23
  5639   00273E                     __ptext23:
  5640                           	callstack 0
  5641   00273E                     ___fleq:
  5642                           	callstack 26
  5643   00273E  0E00               	movlw	0
  5644   002740  1401               	andwf	___fleq@ff1^0,w,c
  5645   002742  6E09               	movwf	??___fleq^0,c
  5646   002744  0E00               	movlw	0
  5647   002746  1402               	andwf	(___fleq@ff1+1)^0,w,c
  5648   002748  6E0A               	movwf	(??___fleq+1)^0,c
  5649   00274A  0E80               	movlw	128
  5650   00274C  1403               	andwf	(___fleq@ff1+2)^0,w,c
  5651   00274E  6E0B               	movwf	(??___fleq+2)^0,c
  5652   002750  0E7F               	movlw	127
  5653   002752  1404               	andwf	(___fleq@ff1+3)^0,w,c
  5654   002754  6E0C               	movwf	(??___fleq+3)^0,c
  5655   002756  5009               	movf	??___fleq^0,w,c
  5656   002758  100A               	iorwf	(??___fleq+1)^0,w,c
  5657   00275A  100B               	iorwf	(??___fleq+2)^0,w,c
  5658   00275C  100C               	iorwf	(??___fleq+3)^0,w,c
  5659   00275E  A4D8               	btfss	status,2,c
  5660   002760  EFB4  F013         	goto	u2591
  5661   002764  EFB6  F013         	goto	u2590
  5662   002768                     u2591:
  5663   002768  EFBE  F013         	goto	l2752
  5664   00276C                     u2590:
  5665   00276C  0E00               	movlw	0
  5666   00276E  6E01               	movwf	___fleq@ff1^0,c
  5667   002770  0E00               	movlw	0
  5668   002772  6E02               	movwf	(___fleq@ff1+1)^0,c
  5669   002774  0E00               	movlw	0
  5670   002776  6E03               	movwf	(___fleq@ff1+2)^0,c
  5671   002778  0E00               	movlw	0
  5672   00277A  6E04               	movwf	(___fleq@ff1+3)^0,c
  5673   00277C                     l2752:
  5674   00277C  0E00               	movlw	0
  5675   00277E  1405               	andwf	___fleq@ff2^0,w,c
  5676   002780  6E09               	movwf	??___fleq^0,c
  5677   002782  0E00               	movlw	0
  5678   002784  1406               	andwf	(___fleq@ff2+1)^0,w,c
  5679   002786  6E0A               	movwf	(??___fleq+1)^0,c
  5680   002788  0E80               	movlw	128
  5681   00278A  1407               	andwf	(___fleq@ff2+2)^0,w,c
  5682   00278C  6E0B               	movwf	(??___fleq+2)^0,c
  5683   00278E  0E7F               	movlw	127
  5684   002790  1408               	andwf	(___fleq@ff2+3)^0,w,c
  5685   002792  6E0C               	movwf	(??___fleq+3)^0,c
  5686   002794  5009               	movf	??___fleq^0,w,c
  5687   002796  100A               	iorwf	(??___fleq+1)^0,w,c
  5688   002798  100B               	iorwf	(??___fleq+2)^0,w,c
  5689   00279A  100C               	iorwf	(??___fleq+3)^0,w,c
  5690   00279C  A4D8               	btfss	status,2,c
  5691   00279E  EFD3  F013         	goto	u2601
  5692   0027A2  EFD5  F013         	goto	u2600
  5693   0027A6                     u2601:
  5694   0027A6  EFDD  F013         	goto	l2756
  5695   0027AA                     u2600:
  5696   0027AA  0E00               	movlw	0
  5697   0027AC  6E05               	movwf	___fleq@ff2^0,c
  5698   0027AE  0E00               	movlw	0
  5699   0027B0  6E06               	movwf	(___fleq@ff2+1)^0,c
  5700   0027B2  0E00               	movlw	0
  5701   0027B4  6E07               	movwf	(___fleq@ff2+2)^0,c
  5702   0027B6  0E00               	movlw	0
  5703   0027B8  6E08               	movwf	(___fleq@ff2+3)^0,c
  5704   0027BA                     l2756:
  5705   0027BA  5005               	movf	___fleq@ff2^0,w,c
  5706   0027BC  1801               	xorwf	___fleq@ff1^0,w,c
  5707   0027BE  E10F               	bnz	u2610
  5708   0027C0  5006               	movf	(___fleq@ff2+1)^0,w,c
  5709   0027C2  1802               	xorwf	(___fleq@ff1+1)^0,w,c
  5710   0027C4  E10C               	bnz	u2610
  5711   0027C6  5007               	movf	(___fleq@ff2+2)^0,w,c
  5712   0027C8  1803               	xorwf	(___fleq@ff1+2)^0,w,c
  5713   0027CA  E109               	bnz	u2610
  5714   0027CC  5008               	movf	(___fleq@ff2+3)^0,w,c
  5715   0027CE  1804               	xorwf	(___fleq@ff1+3)^0,w,c
  5716   0027D0  B4D8               	btfsc	status,2,c
  5717   0027D2  EFED  F013         	goto	u2611
  5718   0027D6  EFEF  F013         	goto	u2610
  5719   0027DA                     u2611:
  5720   0027DA  EFF2  F013         	goto	l2760
  5721   0027DE                     u2610:
  5722   0027DE  90D8               	bcf	status,0,c
  5723   0027E0  EFF3  F013         	goto	l422
  5724   0027E4                     l2760:
  5725   0027E4  80D8               	bsf	status,0,c
  5726   0027E6                     l422:
  5727   0027E6  0012               	return		;funcret
  5728   0027E8                     __end_of___fleq:
  5729                           	callstack 0
  5730                           
  5731 ;; *************** function ___fldiv *****************
  5732 ;; Defined at:
  5733 ;;		line 11 in file "C:\Program Files\Microchip\xc8\v2.41\pic\sources\c99\common\sprcdiv.c"
  5734 ;; Parameters:    Size  Location     Type
  5735 ;;  b               4    0[COMRAM] unsigned char 
  5736 ;;  a               4    4[COMRAM] unsigned char 
  5737 ;; Auto vars:     Size  Location     Type
  5738 ;;  grs             4   19[COMRAM] unsigned long 
  5739 ;;  rem             4   12[COMRAM] unsigned long 
  5740 ;;  new_exp         2   17[COMRAM] short 
  5741 ;;  aexp            1   24[COMRAM] unsigned char 
  5742 ;;  bexp            1   23[COMRAM] unsigned char 
  5743 ;;  sign            1   16[COMRAM] unsigned char 
  5744 ;; Return value:  Size  Location     Type
  5745 ;;                  4    0[COMRAM] unsigned char 
  5746 ;; Registers used:
  5747 ;;		wreg, status,2, status,0
  5748 ;; Tracked objects:
  5749 ;;		On entry : 0/0
  5750 ;;		On exit  : 0/0
  5751 ;;		Unchanged: 0/0
  5752 ;; Data sizes:     COMRAM   BANK0   BANK1   BANK2   BANK3   BANK4   BANK5
  5753 ;;      Params:         8       0       0       0       0       0       0
  5754 ;;      Locals:        13       0       0       0       0       0       0
  5755 ;;      Temps:          4       0       0       0       0       0       0
  5756 ;;      Totals:        25       0       0       0       0       0       0
  5757 ;;Total ram usage:       25 bytes
  5758 ;; Hardware stack levels used: 1
  5759 ;; This function calls:
  5760 ;;		Nothing
  5761 ;; This function is called by:
  5762 ;;		_efgtoa
  5763 ;; This function uses a non-reentrant model
  5764 ;;
  5765                           
  5766                           	psect	text24
  5767   0018F4                     __ptext24:
  5768                           	callstack 0
  5769   0018F4                     ___fldiv:
  5770                           	callstack 26
  5771   0018F4  5004               	movf	(___fldiv@b+3)^0,w,c
  5772   0018F6  0B80               	andlw	128
  5773   0018F8  6E11               	movwf	___fldiv@sign^0,c
  5774   0018FA  5004               	movf	(___fldiv@b+3)^0,w,c
  5775   0018FC  2404               	addwf	(___fldiv@b+3)^0,w,c
  5776   0018FE  6E18               	movwf	___fldiv@bexp^0,c
  5777   001900  AE03               	btfss	(___fldiv@b+2)^0,7,c
  5778   001902  EF85  F00C         	goto	u2171
  5779   001906  EF87  F00C         	goto	u2170
  5780   00190A                     u2171:
  5781   00190A  EF88  F00C         	goto	l2480
  5782   00190E                     u2170:
  5783   00190E  8018               	bsf	___fldiv@bexp^0,0,c
  5784   001910                     l2480:
  5785   001910  5018               	movf	___fldiv@bexp^0,w,c
  5786   001912  B4D8               	btfsc	status,2,c
  5787   001914  EF8E  F00C         	goto	u2181
  5788   001918  EF90  F00C         	goto	u2180
  5789   00191C                     u2181:
  5790   00191C  EFA5  F00C         	goto	l2490
  5791   001920                     u2180:
  5792   001920  2818               	incf	___fldiv@bexp^0,w,c
  5793   001922  A4D8               	btfss	status,2,c
  5794   001924  EF96  F00C         	goto	u2191
  5795   001928  EF98  F00C         	goto	u2190
  5796   00192C                     u2191:
  5797   00192C  EFA0  F00C         	goto	l2486
  5798   001930                     u2190:
  5799   001930  0E00               	movlw	0
  5800   001932  6E01               	movwf	___fldiv@b^0,c
  5801   001934  0E00               	movlw	0
  5802   001936  6E02               	movwf	(___fldiv@b+1)^0,c
  5803   001938  0E00               	movlw	0
  5804   00193A  6E03               	movwf	(___fldiv@b+2)^0,c
  5805   00193C  0E00               	movlw	0
  5806   00193E  6E04               	movwf	(___fldiv@b+3)^0,c
  5807   001940                     l2486:
  5808   001940  8E03               	bsf	(___fldiv@b+2)^0,7,c
  5809   001942  0E00               	movlw	0
  5810   001944  6E04               	movwf	(___fldiv@b+3)^0,c
  5811   001946  EFAD  F00C         	goto	l2492
  5812   00194A                     l2490:
  5813   00194A  0E00               	movlw	0
  5814   00194C  6E01               	movwf	___fldiv@b^0,c
  5815   00194E  0E00               	movlw	0
  5816   001950  6E02               	movwf	(___fldiv@b+1)^0,c
  5817   001952  0E00               	movlw	0
  5818   001954  6E03               	movwf	(___fldiv@b+2)^0,c
  5819   001956  0E00               	movlw	0
  5820   001958  6E04               	movwf	(___fldiv@b+3)^0,c
  5821   00195A                     l2492:
  5822   00195A  5008               	movf	(___fldiv@a+3)^0,w,c
  5823   00195C  0B80               	andlw	128
  5824   00195E  1A11               	xorwf	___fldiv@sign^0,f,c
  5825   001960  5008               	movf	(___fldiv@a+3)^0,w,c
  5826   001962  2408               	addwf	(___fldiv@a+3)^0,w,c
  5827   001964  6E19               	movwf	___fldiv@aexp^0,c
  5828   001966  AE07               	btfss	(___fldiv@a+2)^0,7,c
  5829   001968  EFB8  F00C         	goto	u2201
  5830   00196C  EFBA  F00C         	goto	u2200
  5831   001970                     u2201:
  5832   001970  EFBB  F00C         	goto	l2500
  5833   001974                     u2200:
  5834   001974  8019               	bsf	___fldiv@aexp^0,0,c
  5835   001976                     l2500:
  5836   001976  5019               	movf	___fldiv@aexp^0,w,c
  5837   001978  B4D8               	btfsc	status,2,c
  5838   00197A  EFC1  F00C         	goto	u2211
  5839   00197E  EFC3  F00C         	goto	u2210
  5840   001982                     u2211:
  5841   001982  EFD8  F00C         	goto	l2510
  5842   001986                     u2210:
  5843   001986  2819               	incf	___fldiv@aexp^0,w,c
  5844   001988  A4D8               	btfss	status,2,c
  5845   00198A  EFC9  F00C         	goto	u2221
  5846   00198E  EFCB  F00C         	goto	u2220
  5847   001992                     u2221:
  5848   001992  EFD3  F00C         	goto	l2506
  5849   001996                     u2220:
  5850   001996  0E00               	movlw	0
  5851   001998  6E05               	movwf	___fldiv@a^0,c
  5852   00199A  0E00               	movlw	0
  5853   00199C  6E06               	movwf	(___fldiv@a+1)^0,c
  5854   00199E  0E00               	movlw	0
  5855   0019A0  6E07               	movwf	(___fldiv@a+2)^0,c
  5856   0019A2  0E00               	movlw	0
  5857   0019A4  6E08               	movwf	(___fldiv@a+3)^0,c
  5858   0019A6                     l2506:
  5859   0019A6  8E07               	bsf	(___fldiv@a+2)^0,7,c
  5860   0019A8  0E00               	movlw	0
  5861   0019AA  6E08               	movwf	(___fldiv@a+3)^0,c
  5862   0019AC  EFE0  F00C         	goto	l2512
  5863   0019B0                     l2510:
  5864   0019B0  0E00               	movlw	0
  5865   0019B2  6E05               	movwf	___fldiv@a^0,c
  5866   0019B4  0E00               	movlw	0
  5867   0019B6  6E06               	movwf	(___fldiv@a+1)^0,c
  5868   0019B8  0E00               	movlw	0
  5869   0019BA  6E07               	movwf	(___fldiv@a+2)^0,c
  5870   0019BC  0E00               	movlw	0
  5871   0019BE  6E08               	movwf	(___fldiv@a+3)^0,c
  5872   0019C0                     l2512:
  5873   0019C0  5005               	movf	___fldiv@a^0,w,c
  5874   0019C2  1006               	iorwf	(___fldiv@a+1)^0,w,c
  5875   0019C4  1007               	iorwf	(___fldiv@a+2)^0,w,c
  5876   0019C6  1008               	iorwf	(___fldiv@a+3)^0,w,c
  5877   0019C8  A4D8               	btfss	status,2,c
  5878   0019CA  EFE9  F00C         	goto	u2231
  5879   0019CE  EFEB  F00C         	goto	u2230
  5880   0019D2                     u2231:
  5881   0019D2  EF03  F00D         	goto	l2524
  5882   0019D6                     u2230:
  5883   0019D6  0E00               	movlw	0
  5884   0019D8  6E01               	movwf	___fldiv@b^0,c
  5885   0019DA  0E00               	movlw	0
  5886   0019DC  6E02               	movwf	(___fldiv@b+1)^0,c
  5887   0019DE  0E00               	movlw	0
  5888   0019E0  6E03               	movwf	(___fldiv@b+2)^0,c
  5889   0019E2  0E00               	movlw	0
  5890   0019E4  6E04               	movwf	(___fldiv@b+3)^0,c
  5891   0019E6  0E80               	movlw	128
  5892   0019E8  1203               	iorwf	(___fldiv@b+2)^0,f,c
  5893   0019EA  0E7F               	movlw	127
  5894   0019EC  1204               	iorwf	(___fldiv@b+3)^0,f,c
  5895   0019EE                     l2518:
  5896   0019EE  5011               	movf	___fldiv@sign^0,w,c
  5897   0019F0  1204               	iorwf	(___fldiv@b+3)^0,f,c
  5898   0019F2  C001  F001         	movff	___fldiv@b,?___fldiv
  5899   0019F6  C002  F002         	movff	___fldiv@b+1,?___fldiv+1
  5900   0019FA  C003  F003         	movff	___fldiv@b+2,?___fldiv+2
  5901   0019FE  C004  F004         	movff	___fldiv@b+3,?___fldiv+3
  5902   001A02  EF46  F00E         	goto	l745
  5903   001A06                     l2524:
  5904   001A06  5018               	movf	___fldiv@bexp^0,w,c
  5905   001A08  A4D8               	btfss	status,2,c
  5906   001A0A  EF09  F00D         	goto	u2241
  5907   001A0E  EF0B  F00D         	goto	u2240
  5908   001A12                     u2241:
  5909   001A12  EF15  F00D         	goto	l2532
  5910   001A16                     u2240:
  5911   001A16  0E00               	movlw	0
  5912   001A18  6E01               	movwf	?___fldiv^0,c
  5913   001A1A  0E00               	movlw	0
  5914   001A1C  6E02               	movwf	(?___fldiv+1)^0,c
  5915   001A1E  0E00               	movlw	0
  5916   001A20  6E03               	movwf	(?___fldiv+2)^0,c
  5917   001A22  0E00               	movlw	0
  5918   001A24  6E04               	movwf	(?___fldiv+3)^0,c
  5919   001A26  EF46  F00E         	goto	l745
  5920   001A2A                     l2532:
  5921   001A2A  5019               	movf	___fldiv@aexp^0,w,c
  5922   001A2C  C018  F009         	movff	___fldiv@bexp,??___fldiv
  5923   001A30  6A0A               	clrf	(??___fldiv+1)^0,c
  5924   001A32  5E09               	subwf	??___fldiv^0,f,c
  5925   001A34  0E00               	movlw	0
  5926   001A36  5A0A               	subwfb	(??___fldiv+1)^0,f,c
  5927   001A38  0E7F               	movlw	127
  5928   001A3A  2409               	addwf	??___fldiv^0,w,c
  5929   001A3C  6E12               	movwf	___fldiv@new_exp^0,c
  5930   001A3E  0E00               	movlw	0
  5931   001A40  200A               	addwfc	(??___fldiv+1)^0,w,c
  5932   001A42  6E13               	movwf	(___fldiv@new_exp+1)^0,c
  5933   001A44  C001  F00D         	movff	___fldiv@b,___fldiv@rem
  5934   001A48  C002  F00E         	movff	___fldiv@b+1,___fldiv@rem+1
  5935   001A4C  C003  F00F         	movff	___fldiv@b+2,___fldiv@rem+2
  5936   001A50  C004  F010         	movff	___fldiv@b+3,___fldiv@rem+3
  5937   001A54  0E00               	movlw	0
  5938   001A56  6E01               	movwf	___fldiv@b^0,c
  5939   001A58  0E00               	movlw	0
  5940   001A5A  6E02               	movwf	(___fldiv@b+1)^0,c
  5941   001A5C  0E00               	movlw	0
  5942   001A5E  6E03               	movwf	(___fldiv@b+2)^0,c
  5943   001A60  0E00               	movlw	0
  5944   001A62  6E04               	movwf	(___fldiv@b+3)^0,c
  5945   001A64  0E00               	movlw	0
  5946   001A66  6E14               	movwf	___fldiv@grs^0,c
  5947   001A68  0E00               	movlw	0
  5948   001A6A  6E15               	movwf	(___fldiv@grs+1)^0,c
  5949   001A6C  0E00               	movlw	0
  5950   001A6E  6E16               	movwf	(___fldiv@grs+2)^0,c
  5951   001A70  0E00               	movlw	0
  5952   001A72  6E17               	movwf	(___fldiv@grs+3)^0,c
  5953   001A74  0E00               	movlw	0
  5954   001A76  6E19               	movwf	___fldiv@aexp^0,c
  5955   001A78  EF76  F00D         	goto	l747
  5956   001A7C                     l2542:
  5957   001A7C  5019               	movf	___fldiv@aexp^0,w,c
  5958   001A7E  B4D8               	btfsc	status,2,c
  5959   001A80  EF44  F00D         	goto	u2251
  5960   001A84  EF46  F00D         	goto	u2250
  5961   001A88                     u2251:
  5962   001A88  EF5D  F00D         	goto	l2550
  5963   001A8C                     u2250:
  5964   001A8C  90D8               	bcf	status,0,c
  5965   001A8E  360D               	rlcf	___fldiv@rem^0,f,c
  5966   001A90  360E               	rlcf	(___fldiv@rem+1)^0,f,c
  5967   001A92  360F               	rlcf	(___fldiv@rem+2)^0,f,c
  5968   001A94  3610               	rlcf	(___fldiv@rem+3)^0,f,c
  5969   001A96  90D8               	bcf	status,0,c
  5970   001A98  3601               	rlcf	___fldiv@b^0,f,c
  5971   001A9A  3602               	rlcf	(___fldiv@b+1)^0,f,c
  5972   001A9C  3603               	rlcf	(___fldiv@b+2)^0,f,c
  5973   001A9E  3604               	rlcf	(___fldiv@b+3)^0,f,c
  5974   001AA0  AE17               	btfss	(___fldiv@grs+3)^0,7,c
  5975   001AA2  EF55  F00D         	goto	u2261
  5976   001AA6  EF57  F00D         	goto	u2260
  5977   001AAA                     u2261:
  5978   001AAA  EF58  F00D         	goto	l750
  5979   001AAE                     u2260:
  5980   001AAE  8001               	bsf	___fldiv@b^0,0,c
  5981   001AB0                     l750:
  5982   001AB0  90D8               	bcf	status,0,c
  5983   001AB2  3614               	rlcf	___fldiv@grs^0,f,c
  5984   001AB4  3615               	rlcf	(___fldiv@grs+1)^0,f,c
  5985   001AB6  3616               	rlcf	(___fldiv@grs+2)^0,f,c
  5986   001AB8  3617               	rlcf	(___fldiv@grs+3)^0,f,c
  5987   001ABA                     l2550:
  5988   001ABA  5005               	movf	___fldiv@a^0,w,c
  5989   001ABC  5C0D               	subwf	___fldiv@rem^0,w,c
  5990   001ABE  5006               	movf	(___fldiv@a+1)^0,w,c
  5991   001AC0  580E               	subwfb	(___fldiv@rem+1)^0,w,c
  5992   001AC2  5007               	movf	(___fldiv@a+2)^0,w,c
  5993   001AC4  580F               	subwfb	(___fldiv@rem+2)^0,w,c
  5994   001AC6  5008               	movf	(___fldiv@a+3)^0,w,c
  5995   001AC8  5810               	subwfb	(___fldiv@rem+3)^0,w,c
  5996   001ACA  A0D8               	btfss	status,0,c
  5997   001ACC  EF6A  F00D         	goto	u2271
  5998   001AD0  EF6C  F00D         	goto	u2270
  5999   001AD4                     u2271:
  6000   001AD4  EF75  F00D         	goto	l2556
  6001   001AD8                     u2270:
  6002   001AD8  8C17               	bsf	(___fldiv@grs+3)^0,6,c
  6003   001ADA  5005               	movf	___fldiv@a^0,w,c
  6004   001ADC  5E0D               	subwf	___fldiv@rem^0,f,c
  6005   001ADE  5006               	movf	(___fldiv@a+1)^0,w,c
  6006   001AE0  5A0E               	subwfb	(___fldiv@rem+1)^0,f,c
  6007   001AE2  5007               	movf	(___fldiv@a+2)^0,w,c
  6008   001AE4  5A0F               	subwfb	(___fldiv@rem+2)^0,f,c
  6009   001AE6  5008               	movf	(___fldiv@a+3)^0,w,c
  6010   001AE8  5A10               	subwfb	(___fldiv@rem+3)^0,f,c
  6011   001AEA                     l2556:
  6012   001AEA  2A19               	incf	___fldiv@aexp^0,f,c
  6013   001AEC                     l747:
  6014   001AEC  0E19               	movlw	25
  6015   001AEE  6419               	cpfsgt	___fldiv@aexp^0,c
  6016   001AF0  EF7C  F00D         	goto	u2281
  6017   001AF4  EF7E  F00D         	goto	u2280
  6018   001AF8                     u2281:
  6019   001AF8  EF3E  F00D         	goto	l2542
  6020   001AFC                     u2280:
  6021   001AFC  500D               	movf	___fldiv@rem^0,w,c
  6022   001AFE  100E               	iorwf	(___fldiv@rem+1)^0,w,c
  6023   001B00  100F               	iorwf	(___fldiv@rem+2)^0,w,c
  6024   001B02  1010               	iorwf	(___fldiv@rem+3)^0,w,c
  6025   001B04  B4D8               	btfsc	status,2,c
  6026   001B06  EF87  F00D         	goto	u2291
  6027   001B0A  EF89  F00D         	goto	u2290
  6028   001B0E                     u2291:
  6029   001B0E  EFA1  F00D         	goto	l2568
  6030   001B12                     u2290:
  6031   001B12  8014               	bsf	___fldiv@grs^0,0,c
  6032   001B14  EFA1  F00D         	goto	l2568
  6033   001B18                     l2562:
  6034   001B18  90D8               	bcf	status,0,c
  6035   001B1A  3601               	rlcf	___fldiv@b^0,f,c
  6036   001B1C  3602               	rlcf	(___fldiv@b+1)^0,f,c
  6037   001B1E  3603               	rlcf	(___fldiv@b+2)^0,f,c
  6038   001B20  3604               	rlcf	(___fldiv@b+3)^0,f,c
  6039   001B22  AE17               	btfss	(___fldiv@grs+3)^0,7,c
  6040   001B24  EF96  F00D         	goto	u2301
  6041   001B28  EF98  F00D         	goto	u2300
  6042   001B2C                     u2301:
  6043   001B2C  EF99  F00D         	goto	l756
  6044   001B30                     u2300:
  6045   001B30  8001               	bsf	___fldiv@b^0,0,c
  6046   001B32                     l756:
  6047   001B32  90D8               	bcf	status,0,c
  6048   001B34  3614               	rlcf	___fldiv@grs^0,f,c
  6049   001B36  3615               	rlcf	(___fldiv@grs+1)^0,f,c
  6050   001B38  3616               	rlcf	(___fldiv@grs+2)^0,f,c
  6051   001B3A  3617               	rlcf	(___fldiv@grs+3)^0,f,c
  6052   001B3C  0612               	decf	___fldiv@new_exp^0,f,c
  6053   001B3E  A0D8               	btfss	status,0,c
  6054   001B40  0613               	decf	(___fldiv@new_exp+1)^0,f,c
  6055   001B42                     l2568:
  6056   001B42  AE03               	btfss	(___fldiv@b+2)^0,7,c
  6057   001B44  EFA6  F00D         	goto	u2311
  6058   001B48  EFA8  F00D         	goto	u2310
  6059   001B4C                     u2311:
  6060   001B4C  EF8C  F00D         	goto	l2562
  6061   001B50                     u2310:
  6062   001B50  0E00               	movlw	0
  6063   001B52  6E19               	movwf	___fldiv@aexp^0,c
  6064   001B54  AE17               	btfss	(___fldiv@grs+3)^0,7,c
  6065   001B56  EFAF  F00D         	goto	u2321
  6066   001B5A  EFB1  F00D         	goto	u2320
  6067   001B5E                     u2321:
  6068   001B5E  EFD5  F00D         	goto	l758
  6069   001B62                     u2320:
  6070   001B62  0EFF               	movlw	255
  6071   001B64  1414               	andwf	___fldiv@grs^0,w,c
  6072   001B66  6E09               	movwf	??___fldiv^0,c
  6073   001B68  0EFF               	movlw	255
  6074   001B6A  1415               	andwf	(___fldiv@grs+1)^0,w,c
  6075   001B6C  6E0A               	movwf	(??___fldiv+1)^0,c
  6076   001B6E  0EFF               	movlw	255
  6077   001B70  1416               	andwf	(___fldiv@grs+2)^0,w,c
  6078   001B72  6E0B               	movwf	(??___fldiv+2)^0,c
  6079   001B74  0E7F               	movlw	127
  6080   001B76  1417               	andwf	(___fldiv@grs+3)^0,w,c
  6081   001B78  6E0C               	movwf	(??___fldiv+3)^0,c
  6082   001B7A  5009               	movf	??___fldiv^0,w,c
  6083   001B7C  100A               	iorwf	(??___fldiv+1)^0,w,c
  6084   001B7E  100B               	iorwf	(??___fldiv+2)^0,w,c
  6085   001B80  100C               	iorwf	(??___fldiv+3)^0,w,c
  6086   001B82  B4D8               	btfsc	status,2,c
  6087   001B84  EFC6  F00D         	goto	u2331
  6088   001B88  EFC8  F00D         	goto	u2330
  6089   001B8C                     u2331:
  6090   001B8C  EFCC  F00D         	goto	l759
  6091   001B90                     u2330:
  6092   001B90                     l2576:
  6093   001B90  0E01               	movlw	1
  6094   001B92  6E19               	movwf	___fldiv@aexp^0,c
  6095   001B94  EFD5  F00D         	goto	l758
  6096   001B98                     l759:
  6097   001B98  A001               	btfss	___fldiv@b^0,0,c
  6098   001B9A  EFD1  F00D         	goto	u2341
  6099   001B9E  EFD3  F00D         	goto	u2340
  6100   001BA2                     u2341:
  6101   001BA2  EFD5  F00D         	goto	l758
  6102   001BA6                     u2340:
  6103   001BA6  EFC8  F00D         	goto	l2576
  6104   001BAA                     l758:
  6105   001BAA  5019               	movf	___fldiv@aexp^0,w,c
  6106   001BAC  B4D8               	btfsc	status,2,c
  6107   001BAE  EFDB  F00D         	goto	u2351
  6108   001BB2  EFDD  F00D         	goto	u2350
  6109   001BB6                     u2351:
  6110   001BB6  EF01  F00E         	goto	l2588
  6111   001BBA                     u2350:
  6112   001BBA  0E01               	movlw	1
  6113   001BBC  2601               	addwf	___fldiv@b^0,f,c
  6114   001BBE  0E00               	movlw	0
  6115   001BC0  2202               	addwfc	(___fldiv@b+1)^0,f,c
  6116   001BC2  2203               	addwfc	(___fldiv@b+2)^0,f,c
  6117   001BC4  2204               	addwfc	(___fldiv@b+3)^0,f,c
  6118   001BC6  A004               	btfss	(___fldiv@b+3)^0,0,c
  6119   001BC8  EFE8  F00D         	goto	u2361
  6120   001BCC  EFEA  F00D         	goto	u2360
  6121   001BD0                     u2361:
  6122   001BD0  EF01  F00E         	goto	l2588
  6123   001BD4                     u2360:
  6124   001BD4  C001  F009         	movff	___fldiv@b,??___fldiv
  6125   001BD8  C002  F00A         	movff	___fldiv@b+1,??___fldiv+1
  6126   001BDC  C003  F00B         	movff	___fldiv@b+2,??___fldiv+2
  6127   001BE0  C004  F00C         	movff	___fldiv@b+3,??___fldiv+3
  6128   001BE4  340C               	rlcf	(??___fldiv+3)^0,w,c
  6129   001BE6  320C               	rrcf	(??___fldiv+3)^0,f,c
  6130   001BE8  320B               	rrcf	(??___fldiv+2)^0,f,c
  6131   001BEA  320A               	rrcf	(??___fldiv+1)^0,f,c
  6132   001BEC  3209               	rrcf	??___fldiv^0,f,c
  6133   001BEE  C009  F001         	movff	??___fldiv,___fldiv@b
  6134   001BF2  C00A  F002         	movff	??___fldiv+1,___fldiv@b+1
  6135   001BF6  C00B  F003         	movff	??___fldiv+2,___fldiv@b+2
  6136   001BFA  C00C  F004         	movff	??___fldiv+3,___fldiv@b+3
  6137   001BFE  4A12               	infsnz	___fldiv@new_exp^0,f,c
  6138   001C00  2A13               	incf	(___fldiv@new_exp+1)^0,f,c
  6139   001C02                     l2588:
  6140   001C02  BE13               	btfsc	(___fldiv@new_exp+1)^0,7,c
  6141   001C04  EF0C  F00E         	goto	u2371
  6142   001C08  5013               	movf	(___fldiv@new_exp+1)^0,w,c
  6143   001C0A  E108               	bnz	u2370
  6144   001C0C  2812               	incf	___fldiv@new_exp^0,w,c
  6145   001C0E  A0D8               	btfss	status,0,c
  6146   001C10  EF0C  F00E         	goto	u2371
  6147   001C14  EF0E  F00E         	goto	u2370
  6148   001C18                     u2371:
  6149   001C18  EF19  F00E         	goto	l2592
  6150   001C1C                     u2370:
  6151   001C1C  0E00               	movlw	0
  6152   001C1E  6E13               	movwf	(___fldiv@new_exp+1)^0,c
  6153   001C20  6812               	setf	___fldiv@new_exp^0,c
  6154   001C22  0E00               	movlw	0
  6155   001C24  6E01               	movwf	___fldiv@b^0,c
  6156   001C26  0E00               	movlw	0
  6157   001C28  6E02               	movwf	(___fldiv@b+1)^0,c
  6158   001C2A  0E00               	movlw	0
  6159   001C2C  6E03               	movwf	(___fldiv@b+2)^0,c
  6160   001C2E  0E00               	movlw	0
  6161   001C30  6E04               	movwf	(___fldiv@b+3)^0,c
  6162   001C32                     l2592:
  6163   001C32  BE13               	btfsc	(___fldiv@new_exp+1)^0,7,c
  6164   001C34  EF26  F00E         	goto	u2380
  6165   001C38  5013               	movf	(___fldiv@new_exp+1)^0,w,c
  6166   001C3A  E106               	bnz	u2381
  6167   001C3C  0412               	decf	___fldiv@new_exp^0,w,c
  6168   001C3E  B0D8               	btfsc	status,0,c
  6169   001C40  EF24  F00E         	goto	u2381
  6170   001C44  EF26  F00E         	goto	u2380
  6171   001C48                     u2381:
  6172   001C48  EF34  F00E         	goto	l2596
  6173   001C4C                     u2380:
  6174   001C4C  0E00               	movlw	0
  6175   001C4E  6E13               	movwf	(___fldiv@new_exp+1)^0,c
  6176   001C50  0E00               	movlw	0
  6177   001C52  6E12               	movwf	___fldiv@new_exp^0,c
  6178   001C54  0E00               	movlw	0
  6179   001C56  6E01               	movwf	___fldiv@b^0,c
  6180   001C58  0E00               	movlw	0
  6181   001C5A  6E02               	movwf	(___fldiv@b+1)^0,c
  6182   001C5C  0E00               	movlw	0
  6183   001C5E  6E03               	movwf	(___fldiv@b+2)^0,c
  6184   001C60  0E00               	movlw	0
  6185   001C62  6E04               	movwf	(___fldiv@b+3)^0,c
  6186   001C64  0E00               	movlw	0
  6187   001C66  6E11               	movwf	___fldiv@sign^0,c
  6188   001C68                     l2596:
  6189   001C68  C012  F018         	movff	___fldiv@new_exp,___fldiv@bexp
  6190   001C6C  A018               	btfss	___fldiv@bexp^0,0,c
  6191   001C6E  EF3B  F00E         	goto	u2391
  6192   001C72  EF3D  F00E         	goto	u2390
  6193   001C76                     u2391:
  6194   001C76  EF40  F00E         	goto	l2602
  6195   001C7A                     u2390:
  6196   001C7A  8E03               	bsf	(___fldiv@b+2)^0,7,c
  6197   001C7C  EF41  F00E         	goto	l2604
  6198   001C80                     l2602:
  6199   001C80  9E03               	bcf	(___fldiv@b+2)^0,7,c
  6200   001C82                     l2604:
  6201   001C82  90D8               	bcf	status,0,c
  6202   001C84  3018               	rrcf	___fldiv@bexp^0,w,c
  6203   001C86  6E04               	movwf	(___fldiv@b+3)^0,c
  6204   001C88  EFF7  F00C         	goto	l2518
  6205   001C8C                     l745:
  6206   001C8C  0012               	return		;funcret
  6207   001C8E                     __end_of___fldiv:
  6208                           	callstack 0
  6209                           
  6210 ;; *************** function _SYSTEM_Initialize *****************
  6211 ;; Defined at:
  6212 ;;		line 50 in file "mcc_generated_files/mcc.c"
  6213 ;; Parameters:    Size  Location     Type
  6214 ;;		None
  6215 ;; Auto vars:     Size  Location     Type
  6216 ;;		None
  6217 ;; Return value:  Size  Location     Type
  6218 ;;                  1    wreg      void 
  6219 ;; Registers used:
  6220 ;;		wreg, status,2, status,0, cstack
  6221 ;; Tracked objects:
  6222 ;;		On entry : 0/0
  6223 ;;		On exit  : 0/0
  6224 ;;		Unchanged: 0/0
  6225 ;; Data sizes:     COMRAM   BANK0   BANK1   BANK2   BANK3   BANK4   BANK5
  6226 ;;      Params:         0       0       0       0       0       0       0
  6227 ;;      Locals:         0       0       0       0       0       0       0
  6228 ;;      Temps:          0       0       0       0       0       0       0
  6229 ;;      Totals:         0       0       0       0       0       0       0
  6230 ;;Total ram usage:        0 bytes
  6231 ;; Hardware stack levels used: 1
  6232 ;; Hardware stack levels required when called: 2
  6233 ;; This function calls:
  6234 ;;		_EUSART_Initialize
  6235 ;;		_OSCILLATOR_Initialize
  6236 ;;		_PIN_MANAGER_Initialize
  6237 ;; This function is called by:
  6238 ;;		_main
  6239 ;; This function uses a non-reentrant model
  6240 ;;
  6241                           
  6242                           	psect	text25
  6243   002B4C                     __ptext25:
  6244                           	callstack 0
  6245   002B4C                     _SYSTEM_Initialize:
  6246                           	callstack 28
  6247   002B4C                     
  6248                           ;mcc_generated_files/mcc.c: 53:     PIN_MANAGER_Initialize();
  6249   002B4C  EC5A  F015         	call	_PIN_MANAGER_Initialize	;wreg free
  6250                           
  6251                           ;mcc_generated_files/mcc.c: 54:     OSCILLATOR_Initialize();
  6252   002B50  ECAD  F015         	call	_OSCILLATOR_Initialize	;wreg free
  6253   002B54                     
  6254                           ;mcc_generated_files/mcc.c: 55:     EUSART_Initialize();
  6255   002B54  EC04  F015         	call	_EUSART_Initialize	;wreg free
  6256   002B58  0012               	return		;funcret
  6257   002B5A                     __end_of_SYSTEM_Initialize:
  6258                           	callstack 0
  6259                           
  6260 ;; *************** function _PIN_MANAGER_Initialize *****************
  6261 ;; Defined at:
  6262 ;;		line 55 in file "mcc_generated_files/pin_manager.c"
  6263 ;; Parameters:    Size  Location     Type
  6264 ;;		None
  6265 ;; Auto vars:     Size  Location     Type
  6266 ;;		None
  6267 ;; Return value:  Size  Location     Type
  6268 ;;                  1    wreg      void 
  6269 ;; Registers used:
  6270 ;;		wreg, status,2
  6271 ;; Tracked objects:
  6272 ;;		On entry : 0/0
  6273 ;;		On exit  : 0/0
  6274 ;;		Unchanged: 0/0
  6275 ;; Data sizes:     COMRAM   BANK0   BANK1   BANK2   BANK3   BANK4   BANK5
  6276 ;;      Params:         0       0       0       0       0       0       0
  6277 ;;      Locals:         0       0       0       0       0       0       0
  6278 ;;      Temps:          0       0       0       0       0       0       0
  6279 ;;      Totals:         0       0       0       0       0       0       0
  6280 ;;Total ram usage:        0 bytes
  6281 ;; Hardware stack levels used: 1
  6282 ;; This function calls:
  6283 ;;		Nothing
  6284 ;; This function is called by:
  6285 ;;		_SYSTEM_Initialize
  6286 ;; This function uses a non-reentrant model
  6287 ;;
  6288                           
  6289                           	psect	text26
  6290   002AB4                     __ptext26:
  6291                           	callstack 0
  6292   002AB4                     _PIN_MANAGER_Initialize:
  6293                           	callstack 29
  6294   002AB4                     
  6295                           ;mcc_generated_files/pin_manager.c: 60:     LATE = 0x00;
  6296   002AB4  0E00               	movlw	0
  6297   002AB6  6E8D               	movwf	141,c	;volatile
  6298                           
  6299                           ;mcc_generated_files/pin_manager.c: 61:     LATD = 0x00;
  6300   002AB8  0E00               	movlw	0
  6301   002ABA  6E8C               	movwf	140,c	;volatile
  6302                           
  6303                           ;mcc_generated_files/pin_manager.c: 62:     LATA = 0x00;
  6304   002ABC  0E00               	movlw	0
  6305   002ABE  6E89               	movwf	137,c	;volatile
  6306                           
  6307                           ;mcc_generated_files/pin_manager.c: 63:     LATB = 0x00;
  6308   002AC0  0E00               	movlw	0
  6309   002AC2  6E8A               	movwf	138,c	;volatile
  6310                           
  6311                           ;mcc_generated_files/pin_manager.c: 64:     LATC = 0x00;
  6312   002AC4  0E00               	movlw	0
  6313   002AC6  6E8B               	movwf	139,c	;volatile
  6314                           
  6315                           ;mcc_generated_files/pin_manager.c: 69:     TRISE = 0x07;
  6316   002AC8  0E07               	movlw	7
  6317   002ACA  6E96               	movwf	150,c	;volatile
  6318   002ACC                     
  6319                           ;mcc_generated_files/pin_manager.c: 70:     TRISA = 0xFF;
  6320   002ACC  6892               	setf	146,c	;volatile
  6321   002ACE                     
  6322                           ;mcc_generated_files/pin_manager.c: 71:     TRISB = 0xFF;
  6323   002ACE  6893               	setf	147,c	;volatile
  6324                           
  6325                           ;mcc_generated_files/pin_manager.c: 72:     TRISC = 0xBF;
  6326   002AD0  0EBF               	movlw	191
  6327   002AD2  6E94               	movwf	148,c	;volatile
  6328   002AD4                     
  6329                           ;mcc_generated_files/pin_manager.c: 73:     TRISD = 0xFF;
  6330   002AD4  6895               	setf	149,c	;volatile
  6331   002AD6                     
  6332                           ;mcc_generated_files/pin_manager.c: 78:     ANSEL = 0xFF;
  6333   002AD6  687E               	setf	126,c	;volatile
  6334                           
  6335                           ;mcc_generated_files/pin_manager.c: 79:     ANSELH = 0x1F;
  6336   002AD8  0E1F               	movlw	31
  6337   002ADA  6E7F               	movwf	127,c	;volatile
  6338                           
  6339                           ;mcc_generated_files/pin_manager.c: 84:     WPUB = 0x00;
  6340   002ADC  0E00               	movlw	0
  6341   002ADE  6E7C               	movwf	124,c	;volatile
  6342   002AE0                     
  6343                           ;mcc_generated_files/pin_manager.c: 85:     INTCON2bits.nRBPU = 1;
  6344   002AE0  8EF1               	bsf	241,7,c	;volatile
  6345   002AE2  0012               	return		;funcret
  6346   002AE4                     __end_of_PIN_MANAGER_Initialize:
  6347                           	callstack 0
  6348                           
  6349 ;; *************** function _OSCILLATOR_Initialize *****************
  6350 ;; Defined at:
  6351 ;;		line 58 in file "mcc_generated_files/mcc.c"
  6352 ;; Parameters:    Size  Location     Type
  6353 ;;		None
  6354 ;; Auto vars:     Size  Location     Type
  6355 ;;		None
  6356 ;; Return value:  Size  Location     Type
  6357 ;;                  1    wreg      void 
  6358 ;; Registers used:
  6359 ;;		wreg, status,2
  6360 ;; Tracked objects:
  6361 ;;		On entry : 0/0
  6362 ;;		On exit  : 0/0
  6363 ;;		Unchanged: 0/0
  6364 ;; Data sizes:     COMRAM   BANK0   BANK1   BANK2   BANK3   BANK4   BANK5
  6365 ;;      Params:         0       0       0       0       0       0       0
  6366 ;;      Locals:         0       0       0       0       0       0       0
  6367 ;;      Temps:          0       0       0       0       0       0       0
  6368 ;;      Totals:         0       0       0       0       0       0       0
  6369 ;;Total ram usage:        0 bytes
  6370 ;; Hardware stack levels used: 1
  6371 ;; This function calls:
  6372 ;;		Nothing
  6373 ;; This function is called by:
  6374 ;;		_SYSTEM_Initialize
  6375 ;; This function uses a non-reentrant model
  6376 ;;
  6377                           
  6378                           	psect	text27
  6379   002B5A                     __ptext27:
  6380                           	callstack 0
  6381   002B5A                     _OSCILLATOR_Initialize:
  6382                           	callstack 29
  6383   002B5A                     
  6384                           ;mcc_generated_files/mcc.c: 61:     OSCCON = 0x50;
  6385   002B5A  0E50               	movlw	80
  6386   002B5C  6ED3               	movwf	211,c	;volatile
  6387                           
  6388                           ;mcc_generated_files/mcc.c: 63:     OSCTUNE = 0x00;
  6389   002B5E  0E00               	movlw	0
  6390   002B60  6E9B               	movwf	155,c	;volatile
  6391   002B62  0012               	return		;funcret
  6392   002B64                     __end_of_OSCILLATOR_Initialize:
  6393                           	callstack 0
  6394                           
  6395 ;; *************** function _EUSART_Initialize *****************
  6396 ;; Defined at:
  6397 ;;		line 66 in file "mcc_generated_files/eusart.c"
  6398 ;; Parameters:    Size  Location     Type
  6399 ;;		None
  6400 ;; Auto vars:     Size  Location     Type
  6401 ;;		None
  6402 ;; Return value:  Size  Location     Type
  6403 ;;                  1    wreg      void 
  6404 ;; Registers used:
  6405 ;;		wreg, status,2, status,0, cstack
  6406 ;; Tracked objects:
  6407 ;;		On entry : 0/0
  6408 ;;		On exit  : 0/0
  6409 ;;		Unchanged: 0/0
  6410 ;; Data sizes:     COMRAM   BANK0   BANK1   BANK2   BANK3   BANK4   BANK5
  6411 ;;      Params:         0       0       0       0       0       0       0
  6412 ;;      Locals:         0       0       0       0       0       0       0
  6413 ;;      Temps:          0       0       0       0       0       0       0
  6414 ;;      Totals:         0       0       0       0       0       0       0
  6415 ;;Total ram usage:        0 bytes
  6416 ;; Hardware stack levels used: 1
  6417 ;; Hardware stack levels required when called: 1
  6418 ;; This function calls:
  6419 ;;		_EUSART_SetErrorHandler
  6420 ;;		_EUSART_SetFramingErrorHandler
  6421 ;;		_EUSART_SetOverrunErrorHandler
  6422 ;; This function is called by:
  6423 ;;		_SYSTEM_Initialize
  6424 ;; This function uses a non-reentrant model
  6425 ;;
  6426                           
  6427                           	psect	text28
  6428   002A08                     __ptext28:
  6429                           	callstack 0
  6430   002A08                     _EUSART_Initialize:
  6431                           	callstack 28
  6432   002A08                     
  6433                           ;mcc_generated_files/eusart.c: 71:     BAUDCON = 0x08;
  6434   002A08  0E08               	movlw	8
  6435   002A0A  6EB8               	movwf	184,c	;volatile
  6436                           
  6437                           ;mcc_generated_files/eusart.c: 74:     RCSTA = 0x90;
  6438   002A0C  0E90               	movlw	144
  6439   002A0E  6EAB               	movwf	171,c	;volatile
  6440                           
  6441                           ;mcc_generated_files/eusart.c: 77:     TXSTA = 0x24;
  6442   002A10  0E24               	movlw	36
  6443   002A12  6EAC               	movwf	172,c	;volatile
  6444                           
  6445                           ;mcc_generated_files/eusart.c: 80:     SPBRG = 0x67;
  6446   002A14  0E67               	movlw	103
  6447   002A16  6EAF               	movwf	175,c	;volatile
  6448                           
  6449                           ;mcc_generated_files/eusart.c: 83:     SPBRGH = 0x00;
  6450   002A18  0E00               	movlw	0
  6451   002A1A  6EB0               	movwf	176,c	;volatile
  6452   002A1C                     
  6453                           ;mcc_generated_files/eusart.c: 86:     EUSART_SetFramingErrorHandler(EUSART_DefaultFrami
      +                          ngErrorHandler);
  6454   002A1C  0E00               	movlw	0
  6455   002A1E  6E01               	movwf	EUSART_SetFramingErrorHandler@interruptHandler^0,c
  6456   002A20  0E00               	movlw	0
  6457   002A22  6E02               	movwf	(EUSART_SetFramingErrorHandler@interruptHandler+1)^0,c
  6458   002A24  ECB7  F015         	call	_EUSART_SetFramingErrorHandler	;wreg free
  6459   002A28                     
  6460                           ;mcc_generated_files/eusart.c: 87:     EUSART_SetOverrunErrorHandler(EUSART_DefaultOverr
      +                          unErrorHandler);
  6461   002A28  0E00               	movlw	0
  6462   002A2A  6E01               	movwf	EUSART_SetOverrunErrorHandler@interruptHandler^0,c
  6463   002A2C  0E00               	movlw	0
  6464   002A2E  6E02               	movwf	(EUSART_SetOverrunErrorHandler@interruptHandler+1)^0,c
  6465   002A30  ECB2  F015         	call	_EUSART_SetOverrunErrorHandler	;wreg free
  6466   002A34                     
  6467                           ;mcc_generated_files/eusart.c: 88:     EUSART_SetErrorHandler(EUSART_DefaultErrorHandler
      +                          );
  6468   002A34  0E00               	movlw	0
  6469   002A36  6E01               	movwf	EUSART_SetErrorHandler@interruptHandler^0,c
  6470   002A38  0E00               	movlw	0
  6471   002A3A  6E02               	movwf	(EUSART_SetErrorHandler@interruptHandler+1)^0,c
  6472   002A3C  ECBC  F015         	call	_EUSART_SetErrorHandler	;wreg free
  6473   002A40                     
  6474                           ;mcc_generated_files/eusart.c: 90:     eusartRxLastError.status = 0;
  6475   002A40  0E00               	movlw	0
  6476   002A42  6E5F               	movwf	_eusartRxLastError^0,c	;volatile
  6477   002A44  0012               	return		;funcret
  6478   002A46                     __end_of_EUSART_Initialize:
  6479                           	callstack 0
  6480                           
  6481 ;; *************** function _EUSART_SetOverrunErrorHandler *****************
  6482 ;; Defined at:
  6483 ;;		line 161 in file "mcc_generated_files/eusart.c"
  6484 ;; Parameters:    Size  Location     Type
  6485 ;;  interruptHan    2    0[COMRAM] PTR FTN()void 
  6486 ;;		 -> EUSART_DefaultOverrunErrorHandler(1), 
  6487 ;; Auto vars:     Size  Location     Type
  6488 ;;		None
  6489 ;; Return value:  Size  Location     Type
  6490 ;;                  1    wreg      void 
  6491 ;; Registers used:
  6492 ;;		wreg, status,2, status,0
  6493 ;; Tracked objects:
  6494 ;;		On entry : 0/0
  6495 ;;		On exit  : 0/0
  6496 ;;		Unchanged: 0/0
  6497 ;; Data sizes:     COMRAM   BANK0   BANK1   BANK2   BANK3   BANK4   BANK5
  6498 ;;      Params:         2       0       0       0       0       0       0
  6499 ;;      Locals:         0       0       0       0       0       0       0
  6500 ;;      Temps:          0       0       0       0       0       0       0
  6501 ;;      Totals:         2       0       0       0       0       0       0
  6502 ;;Total ram usage:        2 bytes
  6503 ;; Hardware stack levels used: 1
  6504 ;; This function calls:
  6505 ;;		Nothing
  6506 ;; This function is called by:
  6507 ;;		_EUSART_Initialize
  6508 ;; This function uses a non-reentrant model
  6509 ;;
  6510                           
  6511                           	psect	text29
  6512   002B64                     __ptext29:
  6513                           	callstack 0
  6514   002B64                     _EUSART_SetOverrunErrorHandler:
  6515                           	callstack 28
  6516   002B64                     
  6517                           ;mcc_generated_files/eusart.c: 162:     EUSART_OverrunErrorHandler = interruptHandler;
  6518   002B64  C001  F0D4         	movff	EUSART_SetOverrunErrorHandler@interruptHandler,_EUSART_OverrunErrorHandler
  6519   002B68  C002  F0D5         	movff	EUSART_SetOverrunErrorHandler@interruptHandler+1,_EUSART_OverrunErrorHandler+1
  6520   002B6C  0012               	return		;funcret
  6521   002B6E                     __end_of_EUSART_SetOverrunErrorHandler:
  6522                           	callstack 0
  6523                           
  6524 ;; *************** function _EUSART_SetFramingErrorHandler *****************
  6525 ;; Defined at:
  6526 ;;		line 157 in file "mcc_generated_files/eusart.c"
  6527 ;; Parameters:    Size  Location     Type
  6528 ;;  interruptHan    2    0[COMRAM] PTR FTN()void 
  6529 ;;		 -> EUSART_DefaultFramingErrorHandler(1), 
  6530 ;; Auto vars:     Size  Location     Type
  6531 ;;		None
  6532 ;; Return value:  Size  Location     Type
  6533 ;;                  1    wreg      void 
  6534 ;; Registers used:
  6535 ;;		wreg, status,2, status,0
  6536 ;; Tracked objects:
  6537 ;;		On entry : 0/0
  6538 ;;		On exit  : 0/0
  6539 ;;		Unchanged: 0/0
  6540 ;; Data sizes:     COMRAM   BANK0   BANK1   BANK2   BANK3   BANK4   BANK5
  6541 ;;      Params:         2       0       0       0       0       0       0
  6542 ;;      Locals:         0       0       0       0       0       0       0
  6543 ;;      Temps:          0       0       0       0       0       0       0
  6544 ;;      Totals:         2       0       0       0       0       0       0
  6545 ;;Total ram usage:        2 bytes
  6546 ;; Hardware stack levels used: 1
  6547 ;; This function calls:
  6548 ;;		Nothing
  6549 ;; This function is called by:
  6550 ;;		_EUSART_Initialize
  6551 ;; This function uses a non-reentrant model
  6552 ;;
  6553                           
  6554                           	psect	text30
  6555   002B6E                     __ptext30:
  6556                           	callstack 0
  6557   002B6E                     _EUSART_SetFramingErrorHandler:
  6558                           	callstack 28
  6559   002B6E                     
  6560                           ;mcc_generated_files/eusart.c: 158:     EUSART_FramingErrorHandler = interruptHandler;
  6561   002B6E  C001  F0D6         	movff	EUSART_SetFramingErrorHandler@interruptHandler,_EUSART_FramingErrorHandler
  6562   002B72  C002  F0D7         	movff	EUSART_SetFramingErrorHandler@interruptHandler+1,_EUSART_FramingErrorHandler+1
  6563   002B76  0012               	return		;funcret
  6564   002B78                     __end_of_EUSART_SetFramingErrorHandler:
  6565                           	callstack 0
  6566                           
  6567 ;; *************** function _EUSART_SetErrorHandler *****************
  6568 ;; Defined at:
  6569 ;;		line 165 in file "mcc_generated_files/eusart.c"
  6570 ;; Parameters:    Size  Location     Type
  6571 ;;  interruptHan    2    0[COMRAM] PTR FTN()void 
  6572 ;;		 -> EUSART_DefaultErrorHandler(1), 
  6573 ;; Auto vars:     Size  Location     Type
  6574 ;;		None
  6575 ;; Return value:  Size  Location     Type
  6576 ;;                  1    wreg      void 
  6577 ;; Registers used:
  6578 ;;		wreg, status,2, status,0
  6579 ;; Tracked objects:
  6580 ;;		On entry : 0/0
  6581 ;;		On exit  : 0/0
  6582 ;;		Unchanged: 0/0
  6583 ;; Data sizes:     COMRAM   BANK0   BANK1   BANK2   BANK3   BANK4   BANK5
  6584 ;;      Params:         2       0       0       0       0       0       0
  6585 ;;      Locals:         0       0       0       0       0       0       0
  6586 ;;      Temps:          0       0       0       0       0       0       0
  6587 ;;      Totals:         2       0       0       0       0       0       0
  6588 ;;Total ram usage:        2 bytes
  6589 ;; Hardware stack levels used: 1
  6590 ;; This function calls:
  6591 ;;		Nothing
  6592 ;; This function is called by:
  6593 ;;		_EUSART_Initialize
  6594 ;; This function uses a non-reentrant model
  6595 ;;
  6596                           
  6597                           	psect	text31
  6598   002B78                     __ptext31:
  6599                           	callstack 0
  6600   002B78                     _EUSART_SetErrorHandler:
  6601                           	callstack 28
  6602   002B78                     
  6603                           ;mcc_generated_files/eusart.c: 166:     EUSART_ErrorHandler = interruptHandler;
  6604   002B78  C001  F0D2         	movff	EUSART_SetErrorHandler@interruptHandler,_EUSART_ErrorHandler
  6605   002B7C  C002  F0D3         	movff	EUSART_SetErrorHandler@interruptHandler+1,_EUSART_ErrorHandler+1
  6606   002B80  0012               	return		;funcret
  6607   002B82                     __end_of_EUSART_SetErrorHandler:
  6608                           	callstack 0
  6609                           
  6610 ;; *************** function _EUSART_Write *****************
  6611 ;; Defined at:
  6612 ;;		line 132 in file "mcc_generated_files/eusart.c"
  6613 ;; Parameters:    Size  Location     Type
  6614 ;;  txData          1    wreg     unsigned char 
  6615 ;; Auto vars:     Size  Location     Type
  6616 ;;  txData          1    0[COMRAM] unsigned char 
  6617 ;; Return value:  Size  Location     Type
  6618 ;;                  1    wreg      void 
  6619 ;; Registers used:
  6620 ;;		wreg
  6621 ;; Tracked objects:
  6622 ;;		On entry : 0/0
  6623 ;;		On exit  : 0/0
  6624 ;;		Unchanged: 0/0
  6625 ;; Data sizes:     COMRAM   BANK0   BANK1   BANK2   BANK3   BANK4   BANK5
  6626 ;;      Params:         0       0       0       0       0       0       0
  6627 ;;      Locals:         1       0       0       0       0       0       0
  6628 ;;      Temps:          0       0       0       0       0       0       0
  6629 ;;      Totals:         1       0       0       0       0       0       0
  6630 ;;Total ram usage:        1 bytes
  6631 ;; Hardware stack levels used: 1
  6632 ;; This function calls:
  6633 ;;		Nothing
  6634 ;; This function is called by:
  6635 ;;		_main
  6636 ;; This function uses a non-reentrant model
  6637 ;;
  6638                           
  6639                           	psect	text32
  6640   002B36                     __ptext32:
  6641                           	callstack 0
  6642   002B36                     _EUSART_Write:
  6643                           	callstack 30
  6644                           
  6645                           ;incstack = 0
  6646                           ;EUSART_Write@txData stored from wreg
  6647   002B36  6E01               	movwf	EUSART_Write@txData^0,c
  6648   002B38                     l139:
  6649                           
  6650                           ;mcc_generated_files/eusart.c: 134:     while(0 == PIR1bits.TX1IF)
  6651   002B38  A89E               	btfss	158,4,c	;volatile
  6652   002B3A  EFA1  F015         	goto	u3381
  6653   002B3E  EFA3  F015         	goto	u3380
  6654   002B42                     u3381:
  6655   002B42  EF9C  F015         	goto	l139
  6656   002B46                     u3380:
  6657   002B46                     
  6658                           ;mcc_generated_files/eusart.c: 138:     TXREG = txData;
  6659   002B46  C001  FFAD         	movff	EUSART_Write@txData,4013	;volatile
  6660   002B4A  0012               	return		;funcret
  6661   002B4C                     __end_of_EUSART_Write:
  6662                           	callstack 0
  6663                           
  6664                           	psect	rparam
  6665   000000                     
  6666                           	psect	idloc
  6667                           
  6668                           ;Config register IDLOC0 @ 0x200000
  6669                           ;	unspecified, using default values
  6670   200000                     	org	2097152
  6671   200000  FF                 	db	255
  6672                           
  6673                           ;Config register IDLOC1 @ 0x200001
  6674                           ;	unspecified, using default values
  6675   200001                     	org	2097153
  6676   200001  FF                 	db	255
  6677                           
  6678                           ;Config register IDLOC2 @ 0x200002
  6679                           ;	unspecified, using default values
  6680   200002                     	org	2097154
  6681   200002  FF                 	db	255
  6682                           
  6683                           ;Config register IDLOC3 @ 0x200003
  6684                           ;	unspecified, using default values
  6685   200003                     	org	2097155
  6686   200003  FF                 	db	255
  6687                           
  6688                           ;Config register IDLOC4 @ 0x200004
  6689                           ;	unspecified, using default values
  6690   200004                     	org	2097156
  6691   200004  FF                 	db	255
  6692                           
  6693                           ;Config register IDLOC5 @ 0x200005
  6694                           ;	unspecified, using default values
  6695   200005                     	org	2097157
  6696   200005  FF                 	db	255
  6697                           
  6698                           ;Config register IDLOC6 @ 0x200006
  6699                           ;	unspecified, using default values
  6700   200006                     	org	2097158
  6701   200006  FF                 	db	255
  6702                           
  6703                           ;Config register IDLOC7 @ 0x200007
  6704                           ;	unspecified, using default values
  6705   200007                     	org	2097159
  6706   200007  FF                 	db	255
  6707                           
  6708                           	psect	config
  6709                           
  6710                           ; Padding undefined space
  6711   300000                     	org	3145728
  6712   300000  FF                 	db	255
  6713                           
  6714                           ;Config register CONFIG1H @ 0x300001
  6715                           ;	Oscillator Selection bits
  6716                           ;	FOSC = INTIO67, Internal oscillator block, port function on RA6 and RA7
  6717                           ;	Fail-Safe Clock Monitor Enable bit
  6718                           ;	FCMEN = OFF, Fail-Safe Clock Monitor disabled
  6719                           ;	Internal/External Oscillator Switchover bit
  6720                           ;	IESO = OFF, Oscillator Switchover mode disabled
  6721   300001                     	org	3145729
  6722   300001  08                 	db	8
  6723                           
  6724                           ;Config register CONFIG2L @ 0x300002
  6725                           ;	Power-up Timer Enable bit
  6726                           ;	PWRT = OFF, PWRT disabled
  6727                           ;	Brown-out Reset Enable bits
  6728                           ;	BOREN = SBORDIS, Brown-out Reset enabled in hardware only (SBOREN is disabled)
  6729                           ;	Brown Out Reset Voltage bits
  6730                           ;	BORV = 18, VBOR set to 1.8 V nominal
  6731   300002                     	org	3145730
  6732   300002  1F                 	db	31
  6733                           
  6734                           ;Config register CONFIG2H @ 0x300003
  6735                           ;	Watchdog Timer Enable bit
  6736                           ;	WDTEN = OFF, WDT is controlled by SWDTEN bit of the WDTCON register
  6737                           ;	Watchdog Timer Postscale Select bits
  6738                           ;	WDTPS = 32768, 1:32768
  6739   300003                     	org	3145731
  6740   300003  1E                 	db	30
  6741                           
  6742                           ; Padding undefined space
  6743   300004                     	org	3145732
  6744   300004  FF                 	db	255
  6745                           
  6746                           ;Config register CONFIG3H @ 0x300005
  6747                           ;	CCP2 MUX bit
  6748                           ;	CCP2MX = PORTC, CCP2 input/output is multiplexed with RC1
  6749                           ;	PORTB A/D Enable bit
  6750                           ;	PBADEN = ON, PORTB<4:0> pins are configured as analog input channels on Reset
  6751                           ;	Low-Power Timer1 Oscillator Enable bit
  6752                           ;	LPT1OSC = OFF, Timer1 configured for higher power operation
  6753                           ;	HFINTOSC Fast Start-up
  6754                           ;	HFOFST = ON, HFINTOSC starts clocking the CPU without waiting for the oscillator to st
      +                          ablize.
  6755                           ;	MCLR Pin Enable bit
  6756                           ;	MCLRE = ON, MCLR pin enabled; RE3 input pin disabled
  6757   300005                     	org	3145733
  6758   300005  8B                 	db	139
  6759                           
  6760                           ;Config register CONFIG4L @ 0x300006
  6761                           ;	Stack Full/Underflow Reset Enable bit
  6762                           ;	STVREN = ON, Stack full/underflow will cause Reset
  6763                           ;	Single-Supply ICSP Enable bit
  6764                           ;	LVP = ON, Single-Supply ICSP enabled
  6765                           ;	Extended Instruction Set Enable bit
  6766                           ;	XINST = OFF, Instruction set extension and Indexed Addressing mode disabled (Legacy mo
      +                          de)
  6767                           ;	Background Debugger Enable bit
  6768                           ;	DEBUG = OFF, Background debugger disabled, RB6 and RB7 configured as general purpose I
      +                          /O pins
  6769   300006                     	org	3145734
  6770   300006  85                 	db	133
  6771                           
  6772                           ; Padding undefined space
  6773   300007                     	org	3145735
  6774   300007  FF                 	db	255
  6775                           
  6776                           ;Config register CONFIG5L @ 0x300008
  6777                           ;	Code Protection Block 0
  6778                           ;	CP0 = OFF, Block 0 (000800-001FFFh) not code-protected
  6779                           ;	Code Protection Block 1
  6780                           ;	CP1 = OFF, Block 1 (002000-003FFFh) not code-protected
  6781                           ;	Code Protection Block 2
  6782                           ;	CP2 = OFF, Block 2 (004000-005FFFh) not code-protected
  6783                           ;	Code Protection Block 3
  6784                           ;	CP3 = OFF, Block 3 (006000-007FFFh) not code-protected
  6785   300008                     	org	3145736
  6786   300008  0F                 	db	15
  6787                           
  6788                           ;Config register CONFIG5H @ 0x300009
  6789                           ;	Boot Block Code Protection bit
  6790                           ;	CPB = OFF, Boot block (000000-0007FFh) not code-protected
  6791                           ;	Data EEPROM Code Protection bit
  6792                           ;	CPD = OFF, Data EEPROM not code-protected
  6793   300009                     	org	3145737
  6794   300009  C0                 	db	192
  6795                           
  6796                           ;Config register CONFIG6L @ 0x30000A
  6797                           ;	Write Protection Block 0
  6798                           ;	WRT0 = OFF, Block 0 (000800-001FFFh) not write-protected
  6799                           ;	Write Protection Block 1
  6800                           ;	WRT1 = OFF, Block 1 (002000-003FFFh) not write-protected
  6801                           ;	Write Protection Block 2
  6802                           ;	WRT2 = OFF, Block 2 (004000-005FFFh) not write-protected
  6803                           ;	Write Protection Block 3
  6804                           ;	WRT3 = OFF, Block 3 (006000-007FFFh) not write-protected
  6805   30000A                     	org	3145738
  6806   30000A  0F                 	db	15
  6807                           
  6808                           ;Config register CONFIG6H @ 0x30000B
  6809                           ;	Configuration Register Write Protection bit
  6810                           ;	WRTC = OFF, Configuration registers (300000-3000FFh) not write-protected
  6811                           ;	Boot Block Write Protection bit
  6812                           ;	WRTB = OFF, Boot Block (000000-0007FFh) not write-protected
  6813                           ;	Data EEPROM Write Protection bit
  6814                           ;	WRTD = OFF, Data EEPROM not write-protected
  6815   30000B                     	org	3145739
  6816   30000B  E0                 	db	224
  6817                           
  6818                           ;Config register CONFIG7L @ 0x30000C
  6819                           ;	Table Read Protection Block 0
  6820                           ;	EBTR0 = OFF, Block 0 (000800-001FFFh) not protected from table reads executed in other
      +                           blocks
  6821                           ;	Table Read Protection Block 1
  6822                           ;	EBTR1 = OFF, Block 1 (002000-003FFFh) not protected from table reads executed in other
      +                           blocks
  6823                           ;	Table Read Protection Block 2
  6824                           ;	EBTR2 = OFF, Block 2 (004000-005FFFh) not protected from table reads executed in other
      +                           blocks
  6825                           ;	Table Read Protection Block 3
  6826                           ;	EBTR3 = OFF, Block 3 (006000-007FFFh) not protected from table reads executed in other
      +                           blocks
  6827   30000C                     	org	3145740
  6828   30000C  0F                 	db	15
  6829                           
  6830                           ;Config register CONFIG7H @ 0x30000D
  6831                           ;	Boot Block Table Read Protection bit
  6832                           ;	EBTRB = OFF, Boot Block (000000-0007FFh) not protected from table reads executed in ot
      +                          her blocks
  6833   30000D                     	org	3145741
  6834   30000D  40                 	db	64
  6835                           tosu	equ	0xFFF
  6836                           tosh	equ	0xFFE
  6837                           tosl	equ	0xFFD
  6838                           stkptr	equ	0xFFC
  6839                           pclatu	equ	0xFFB
  6840                           pclath	equ	0xFFA
  6841                           pcl	equ	0xFF9
  6842                           tblptru	equ	0xFF8
  6843                           tblptrh	equ	0xFF7
  6844                           tblptrl	equ	0xFF6
  6845                           tablat	equ	0xFF5
  6846                           prodh	equ	0xFF4
  6847                           prodl	equ	0xFF3
  6848                           indf0	equ	0xFEF
  6849                           postinc0	equ	0xFEE
  6850                           postdec0	equ	0xFED
  6851                           preinc0	equ	0xFEC
  6852                           plusw0	equ	0xFEB
  6853                           fsr0h	equ	0xFEA
  6854                           fsr0l	equ	0xFE9
  6855                           wreg	equ	0xFE8
  6856                           indf1	equ	0xFE7
  6857                           postinc1	equ	0xFE6
  6858                           postdec1	equ	0xFE5
  6859                           preinc1	equ	0xFE4
  6860                           plusw1	equ	0xFE3
  6861                           fsr1h	equ	0xFE2
  6862                           fsr1l	equ	0xFE1
  6863                           bsr	equ	0xFE0
  6864                           indf2	equ	0xFDF
  6865                           postinc2	equ	0xFDE
  6866                           postdec2	equ	0xFDD
  6867                           preinc2	equ	0xFDC
  6868                           plusw2	equ	0xFDB
  6869                           fsr2h	equ	0xFDA
  6870                           fsr2l	equ	0xFD9
  6871                           status	equ	0xFD8

Data Sizes:
    Strings     13
    Constant    0
    Data        0
    BSS         94
    Persistent  6
    Stack       0

Auto Spaces:
    Space          Size  Autos    Used
    COMRAM           95     85      95
    BANK0           160    114     124
    BANK1           256      0      80
    BANK2           256      0       0
    BANK3           256      0       0
    BANK4           256      0       0
    BANK5           256      0       0

Pointer List with Targets:

    strlen@s	PTR const unsigned char  size(2) Largest target is 50
		 -> main@data(BANK0[50]), 

    strlen@a	PTR const unsigned char  size(2) Largest target is 50
		 -> main@data(BANK0[50]), 

    strcpy@dest	PTR unsigned char  size(2) Largest target is 80
		 -> dbuf(BANK1[80]), 

    strcpy@d	PTR unsigned char  size(2) Largest target is 80
		 -> dbuf(BANK1[80]), 

    strcpy@src	PTR const unsigned char  size(2) Largest target is 4
		 -> STR_5(CODE[4]), STR_2(CODE[4]), 

    strcpy@s	PTR const unsigned char  size(2) Largest target is 4
		 -> STR_5(CODE[4]), STR_2(CODE[4]), 

    fputs@s	PTR const unsigned char  size(2) Largest target is 80
		 -> dbuf(BANK1[80]), 

    fputs@fp	PTR struct _IO_FILE size(2) Largest target is 12
		 -> sprintf@f(COMRAM[12]), 

    fputc@fp...source	PTR const unsigned char  size(2) Largest target is 0

    fputc@fp...buffer	PTR unsigned char  size(2) Largest target is 0

    fputc@fp	PTR struct _IO_FILE size(2) Largest target is 12
		 -> sprintf@f(COMRAM[12]), 

    memcpy@d1	PTR void  size(2) Largest target is 80
		 -> dbuf(BANK1[80]), 

    memcpy@d	PTR unsigned char  size(2) Largest target is 80
		 -> dbuf(BANK1[80]), 

    memcpy@s1	PTR const void  size(2) Largest target is 80
		 -> dbuf(BANK1[80]), 

    memcpy@s	PTR const unsigned char  size(2) Largest target is 80
		 -> dbuf(BANK1[80]), 

    vfprintf@ap	PTR PTR void  size(2) Largest target is 2
		 -> sprintf@ap(COMRAM[2]), 

    vfprintf@fp	PTR struct _IO_FILE size(2) Largest target is 12
		 -> sprintf@f(COMRAM[12]), 

    vfprintf@fmt	PTR const unsigned char  size(2) Largest target is 5
		 -> STR_1(CODE[5]), 

    vfprintf@cfmt	PTR unsigned char  size(2) Largest target is 5
		 -> STR_1(CODE[5]), 

    vfpfcnvrt@fp	PTR struct _IO_FILE size(2) Largest target is 12
		 -> sprintf@f(COMRAM[12]), 

    vfpfcnvrt@cp	PTR unsigned char  size(2) Largest target is 5
		 -> STR_1(CODE[5]), 

    vfpfcnvrt@ap	PTR PTR void  size(2) Largest target is 2
		 -> sprintf@ap(COMRAM[2]), 

    vfpfcnvrt@fmt	PTR PTR unsigned char  size(2) Largest target is 2
		 -> vfprintf@cfmt(COMRAM[2]), 

    S940$vp	PTR void  size(2) Largest target is 0

    convarg.vp	PTR void  size(2) Largest target is 0

    read_prec_or_width@ap	PTR PTR void [1] size(2) Largest target is 2
		 -> sprintf@ap(COMRAM[2]), 

    read_prec_or_width@fmt	PTR PTR const unsigned char  size(2) Largest target is 2
		 -> vfprintf@cfmt(COMRAM[2]), 

    sp__memcpy	PTR void  size(2) Largest target is 80
		 -> dbuf(BANK1[80]), 

    efgtoa@fp	PTR struct _IO_FILE size(2) Largest target is 12
		 -> sprintf@f(COMRAM[12]), 

    sp__strcpy	PTR unsigned char  size(2) Largest target is 80
		 -> dbuf(BANK1[80]), 

    pad@fp	PTR struct _IO_FILE size(2) Largest target is 12
		 -> sprintf@f(COMRAM[12]), 

    pad@buf	PTR unsigned char  size(2) Largest target is 80
		 -> dbuf(BANK1[80]), 

    sprintf@fmt	PTR const unsigned char  size(2) Largest target is 5
		 -> STR_1(CODE[5]), 

    sprintf@s	PTR unsigned char  size(2) Largest target is 50
		 -> main@data(BANK0[50]), 

    sprintf@ap	PTR void [1] size(2) Largest target is 2
		 -> ?_sprintf(BANK0[2]), 

    S855$source	PTR const unsigned char  size(2) Largest target is 0

    f...source	PTR const unsigned char  size(2) Largest target is 0

    S855$buffer	PTR unsigned char  size(2) Largest target is 0

    f...buffer	PTR unsigned char  size(2) Largest target is 0

    EUSART_SetErrorHandler@interruptHandler	PTR FTN()void  size(2) Largest target is 1
		 -> EUSART_DefaultErrorHandler(), 

    EUSART_ErrorHandler	PTR FTN()void  size(2) Largest target is 1
		 -> NULL(), EUSART_DefaultErrorHandler(), 

    EUSART_SetOverrunErrorHandler@interruptHandler	PTR FTN()void  size(2) Largest target is 1
		 -> EUSART_DefaultOverrunErrorHandler(), 

    EUSART_OverrunErrorHandler	PTR FTN()void  size(2) Largest target is 1
		 -> NULL(), EUSART_DefaultOverrunErrorHandler(), 

    EUSART_SetFramingErrorHandler@interruptHandler	PTR FTN()void  size(2) Largest target is 1
		 -> EUSART_DefaultFramingErrorHandler(), 

    EUSART_FramingErrorHandler	PTR FTN()void  size(2) Largest target is 1
		 -> NULL(), EUSART_DefaultFramingErrorHandler(), 


Critical Paths under _main in COMRAM

    _main->_sprintf
    _sprintf->_vfprintf
    _vfprintf->_vfpfcnvrt
    _vfpfcnvrt->_efgtoa
    _read_prec_or_width->___wmul
    _efgtoa->_floorf
    _pad->_fputs
    _fputs->_fputc
    _floorf->___fldiv
    ___flsub->___flmul
    ___flge->___flmul
    _EUSART_Initialize->_EUSART_SetErrorHandler
    _EUSART_Initialize->_EUSART_SetFramingErrorHandler
    _EUSART_Initialize->_EUSART_SetOverrunErrorHandler

Critical Paths under _main in BANK0

    _main->_sprintf
    _sprintf->_vfprintf
    _vfpfcnvrt->_efgtoa

Critical Paths under _main in BANK1

    None.

Critical Paths under _main in BANK2

    None.

Critical Paths under _main in BANK3

    None.

Critical Paths under _main in BANK4

    None.

Critical Paths under _main in BANK5

    None.

Call Graph Tables:

 ---------------------------------------------------------------------------------
 (Depth) Function   	        Calls       Base Space   Used Autos Params    Refs
 ---------------------------------------------------------------------------------
 (0) _main                                                58    58      0   26243
                                             58 BANK0     56    56      0
                       _EUSART_Write
                  _SYSTEM_Initialize
                            ___fladd
                             ___flge
                            _sprintf
                             _strlen
 ---------------------------------------------------------------------------------
 (1) _strlen                                               4     2      2     242
                                              0 COMRAM     4     2      2
 ---------------------------------------------------------------------------------
 (1) _sprintf                                             24    16      8   21966
                                             71 COMRAM    14    14      0
                                             50 BANK0      8     0      8
                           _vfprintf
 ---------------------------------------------------------------------------------
 (2) _vfprintf                                             8     2      6   21611
                                             69 COMRAM     2     2      0
                                             44 BANK0      6     0      6
                          _vfpfcnvrt
 ---------------------------------------------------------------------------------
 (3) _vfpfcnvrt                                           19    13      6   21255
                                             54 COMRAM    15     9      6
                             _efgtoa
                              _fputc
                 _read_prec_or_width
 ---------------------------------------------------------------------------------
 (4) _read_prec_or_width                                   9     5      4     643
                                              6 COMRAM     9     5      4
                             ___wmul
 ---------------------------------------------------------------------------------
 (5) ___wmul                                               6     2      4     311
                                              0 COMRAM     6     2      4
 ---------------------------------------------------------------------------------
 (4) _efgtoa                                              54    47      7   19233
                                             45 COMRAM     9     2      7
                                              0 BANK0     44    44      0
                            ___fladd
                            ___fldiv
                             ___fleq
                             ___flge
                            ___flmul
                            ___flneg
                            ___flsub
                            ___fltol
                      ___fpclassifyf
                             _floorf
                               _labs
                             _memcpy
                                _pad
                             _strcpy
 ---------------------------------------------------------------------------------
 (5) _strcpy                                               8     4      4     400
                                              0 COMRAM     8     4      4
 ---------------------------------------------------------------------------------
 (5) _pad                                                 11     5      6    2651
                                             16 COMRAM    11     5      6
                              _fputc
                              _fputs
 ---------------------------------------------------------------------------------
 (6) _fputs                                                7     3      4    1083
                                              9 COMRAM     7     3      4
                              _fputc
 ---------------------------------------------------------------------------------
 (4) _fputc                                                9     5      4     682
                                              0 COMRAM     9     5      4
                              _putch
 ---------------------------------------------------------------------------------
 (5) _putch                                                1     1      0       0
 ---------------------------------------------------------------------------------
 (5) _memcpy                                              11     5      6     371
                                              0 COMRAM    11     5      6
 ---------------------------------------------------------------------------------
 (5) _labs                                                 8     4      4     294
                                              0 COMRAM     8     4      4
 ---------------------------------------------------------------------------------
 (5) _floorf                                              20    16      4     490
                                             25 COMRAM    20    16      4
                            ___fldiv (ARG)
 ---------------------------------------------------------------------------------
 (5) ___fpclassifyf                                       14    10      4     287
                                              0 COMRAM    14    10      4
 ---------------------------------------------------------------------------------
 (5) ___fltol                                             10     6      4     457
                                              0 COMRAM    10     6      4
 ---------------------------------------------------------------------------------
 (5) ___flsub                                              8     0      8    3041
                                             25 COMRAM     8     0      8
                            ___fladd
                            ___flmul (ARG)
 ---------------------------------------------------------------------------------
 (6) ___fladd                                             16     8      8    2566
                                              0 COMRAM    16     8      8
 ---------------------------------------------------------------------------------
 (5) ___flneg                                              4     0      4     121
                                              0 COMRAM     4     0      4
 ---------------------------------------------------------------------------------
 (5) ___flmul                                             25    17      8    2504
                                              0 COMRAM    25    17      8
 ---------------------------------------------------------------------------------
 (5) ___flge                                              12     4      8     942
                                             25 COMRAM    12     4      8
                            ___flmul (ARG)
 ---------------------------------------------------------------------------------
 (5) ___fleq                                              12     4      8     646
                                              0 COMRAM    12     4      8
 ---------------------------------------------------------------------------------
 (5) ___fldiv                                             25    17      8    2007
                                              0 COMRAM    25    17      8
 ---------------------------------------------------------------------------------
 (1) _SYSTEM_Initialize                                    0     0      0     294
                  _EUSART_Initialize
              _OSCILLATOR_Initialize
             _PIN_MANAGER_Initialize
 ---------------------------------------------------------------------------------
 (2) _PIN_MANAGER_Initialize                               0     0      0       0
 ---------------------------------------------------------------------------------
 (2) _OSCILLATOR_Initialize                                0     0      0       0
 ---------------------------------------------------------------------------------
 (2) _EUSART_Initialize                                    0     0      0     294
             _EUSART_SetErrorHandler
      _EUSART_SetFramingErrorHandler
      _EUSART_SetOverrunErrorHandler
 ---------------------------------------------------------------------------------
 (3) _EUSART_SetOverrunErrorHandler                        2     0      2      98
                                              0 COMRAM     2     0      2
 ---------------------------------------------------------------------------------
 (3) _EUSART_SetFramingErrorHandler                        2     0      2      98
                                              0 COMRAM     2     0      2
 ---------------------------------------------------------------------------------
 (3) _EUSART_SetErrorHandler                               2     0      2      98
                                              0 COMRAM     2     0      2
 ---------------------------------------------------------------------------------
 (1) _EUSART_Write                                         1     1      0      22
                                              0 COMRAM     1     1      0
 ---------------------------------------------------------------------------------
 Estimated maximum stack depth 6
 ---------------------------------------------------------------------------------

 Call Graph Graphs:

 _main (ROOT)
   _EUSART_Write
   _SYSTEM_Initialize
     _EUSART_Initialize
       _EUSART_SetErrorHandler
       _EUSART_SetFramingErrorHandler
       _EUSART_SetOverrunErrorHandler
     _OSCILLATOR_Initialize
     _PIN_MANAGER_Initialize
   ___fladd
   ___flge
     ___flmul (ARG)
   _sprintf
     _vfprintf
       _vfpfcnvrt
         _efgtoa
           ___fladd
           ___fldiv
           ___fleq
           ___flge
           ___flmul
           ___flneg
           ___flsub
             ___fladd
             ___flmul (ARG)
           ___fltol
           ___fpclassifyf
           _floorf
             ___fldiv (ARG)
           _labs
           _memcpy
           _pad
             _fputc
               _putch
             _fputs
               _fputc
           _strcpy
         _fputc
         _read_prec_or_width
           ___wmul
   _strlen

 Address spaces:
Name               Size   Autos  Total    Cost      Usage
BIGRAM             5FF      0       0      28        0.0%
EEDATA             100      0       0       0        0.0%
BITBANK5           100      0       0      14        0.0%
BANK5              100      0       0      15        0.0%
BITBANK4           100      0       0      12        0.0%
BANK4              100      0       0      13        0.0%
BITBANK3           100      0       0      10        0.0%
BANK3              100      0       0      11        0.0%
BITBANK2           100      0       0       8        0.0%
BANK2              100      0       0       9        0.0%
BITBANK1           100      0       0       6        0.0%
BANK1              100      0      50       7       31.2%
BITBANK0            A0      0       0       4        0.0%
BANK0               A0     72      7C       5       77.5%
BITCOMRAM           5F      0       0       0        0.0%
COMRAM              5F     55      5F       1      100.0%
BITBIGSFRhhlh       1D      0       0      17        0.0%
BITBIGSFRllll       1C      0       0      26        0.0%
BITBIGSFRhhllhh     1A      0       0      18        0.0%
BITBIGSFRhhh         D      0       0      16        0.0%
BITBIGSFRhhllhl      C      0       0      20        0.0%
BITBIGSFRllh         9      0       0      24        0.0%
BITBIGSFRhhllhl      7      0       0      19        0.0%
BITBIGSFRhhlll       4      0       0      22        0.0%
BITBIGSFRhll         4      0       0      23        0.0%
BITBIGSFRhhllhl      2      0       0      21        0.0%
BITBIGSFRlllh        1      0       0      25        0.0%
BIGSFR               0      0       0     200        0.0%
BITSFR               0      0       0     200        0.0%
SFR                  0      0       0     200        0.0%
STACK                0      0       0       2        0.0%
NULL                 0      0       0       0        0.0%
ABS                  0      0     12B      27        0.0%
DATA                 0      0     12B       3        0.0%
CODE                 0      0       0       0        0.0%


Microchip Technology PIC18 Macro Assembler V2.41 build 20230208172133 
Symbol Table                                                                                   Sun Jul 09 23:12:06 2023

                                 ___fldiv@aexp 0019                                   ___fldiv@bexp 0018  
                                 ___fldiv@sign 0011                                             l33 2AE2  
                                           l52 2B62                                             l49 2B58  
                          ___wmul@multiplicand 0003                                            l115 2A44  
                                          l142 2B4A                                            l160 2B80  
                                          l154 2B76                                            l139 2B38  
                                          l163 2B34                                            l157 2B6C  
                                          l422 27E6                                            l433 2404  
                                          l428 23BE                                            l700 14C8  
                                          l460 2300                                            l437 2A7C  
                                          l708 1312                                            l717 13E2  
                                          l733 2982                                            l750 1AB0  
                                          l718 13D0                                            l745 1C8C  
                                          l921 0DEC                                            l841 289C  
                                          l747 1AEC                                            l691 11F8  
                                          l756 1B32                                            l692 11E6  
                                          l781 18F2                                            l693 11AC  
                                          l933 268A                                            l758 1BAA  
                                          l759 1B98                                            l784 1784  
                                          l872 26D8                                            l777 158E  
                                          l937 2692                                            l794 18B4  
                                          l786 17FC                                            l787 17EA  
                                          l875 271A                                            l891 09A2  
                                          l964 28EC                                            l981 20E8  
                                          l877 273C                                            l893 07E8  
                                          l957 1ED6                                            l974 2502  
                                          l984 202C                                            l992 283C  
                                          l888 1008                                            l995 284C  
                                          _pad 2694                 ?_EUSART_SetFramingErrorHandler 0001  
                                          wreg 0FE8                                   ___flmul@aexp 0012  
                                 ___flmul@bexp 0013                                   ___flmul@sign 000D  
                                 ___flmul@temp 0018                                   ___flmul@prod 0014  
                                 ___fltol@exp1 000A                                           l1001 293C  
                                         l1013 25CC                                           l1021 29C6  
                                         l1030 2A06                                           l1024 2B82  
                                         l1036 2AB2                                           l3000 08A2  
                                         l3002 08E0                                           l2300 10EA  
                                         l3100 0E2E                                           l3020 09CE  
                                         l3004 08F4                                           l3012 0970  
                                         l2310 1116                                           l2302 10FC  
                                         l3110 0E60                                           l3102 0E3E  
                                         l3030 0A14                                           l3022 09D6  
                                         l3014 09AA                                           l3006 0928  
                                         l2400 134C                                           l2320 112A  
                                         l2312 111A                                           l2304 110A  
                                         l3120 0F08                                           l3112 0E72  
                                         l3104 0E42                                           l3040 0A5A  
                                         l3032 0A26                                           l3024 09DC  
                                         l3016 09B8                                           l3008 0930  
                                         l2410 137C                                           l2402 1356  
                                         l2330 113E                                           l2322 112E  
                                         l2314 111E                                           l2306 110E  
                                         l2250 2532                                           l3130 0F56  
                                         l3122 0F10                                           l3114 0E76  
                                         l3106 0E48                                           l3050 0B6E  
                                         l3042 0ABE                                           l3026 09EE  
                                         l3034 0A2E                                           l3018 09C4  
                                         l3202 1DF8                                           l2500 1976  
                                         l2420 13A4                                           l2412 1380  
                                         l2404 1364                                           l2340 1178  
                                         l2332 1142                                           l2324 1132  
                                         l2316 1122                                           l2308 1112  
                                         l2260 1016                                           l2252 2550  
                                         l2244 2504                                           l3140 0FCA  
                                         l3132 0F64                                           l3116 0E7C  
                                         l3108 0E4E                                           l3124 0F14  
                                         l3060 0C2C                                           l3052 0BA2  
                                         l3044 0B16                                           l3036 0A36  
                                         l3028 09FC                                           l3212 1E70  
                                         l3204 1E22                                           l3300 20EA  
                                         l2502 1986                                           l2510 19B0  
                                         l2430 13FE                                           l2422 13B2  
                                         l2414 1390                                           l2406 1366  
                                         l2350 11CA                                           l2342 1194  
                                         l2334 1146                                           l2326 1136  
                                         l2318 1126                                           l2270 1056  
                                         l2262 1024                                           l2254 2586  
                                         l2246 2516                                           l3142 0FE0  
                                         l3134 0F94                                           l3126 0F32  
                                         l3118 0ED4                                           l3070 0D00  
                                         l3062 0C3C                                           l3054 0BD4  
                                         l3046 0B4A                                           l3038 0A46  
                                         l3150 25D6                                           l3206 1E42  
                                         l3214 1E9C                                           l3310 216A  
                                         l3302 20FC                                           l3160 2B6E  
                                         l3240 2ACE                                           l2600 1C7A  
                                         l2520 19F2                                           l2512 19C0  
                                         l2504 1996                                           l2440 1468  
                                         l2432 140C                                           l2424 13C8  
                                         l2408 1374                                           l2416 1392  
                                         l2360 1216                                           l2352 11D8  
                                         l2344 11A4                                           l2328 113A  
                                         l2336 114A                                           l2280 1088  
                                         l2272 1058                                           l2264 1026  
                                         l2248 2528                                           l3144 0FE8  
                                         l3136 0FA2                                           l3128 0F4E  
                                         l3080 0D36                                           l3072 0D14  
                                         l3064 0C70                                           l3056 0BEA  
                                         l3048 0B50                                           l3152 25FA  
                                         l3320 21C0                                           l3312 2176  
                                         l3304 2100                                           l3162 2B64  
                                         l3250 2A08                                           l3242 2AD4  
                                         l2602 1C80                                           l2514 19D6  
                                         l2506 19A6                                           l2450 14A2  
                                         l2442 1488                                           l2434 1446  
                                         l2370 1256                                           l2418 13A0  
                                         l2354 11DA                                           l2346 11BA  
                                         l2338 114E                                           l2290 10B0  
                                         l2282 108A                                           l2266 1036  
                                         l2274 1060                                           l2258 100A  
                                         l3138 0FBA                                           l3090 0DFE  
                                         l3082 0D3E                                           l3066 0CC6  
                                         l3074 0D18                                           l3058 0C1C  
                                         l3154 2634                                           l3170 1CC0  
                                         l3218 1EAE                                           l3314 2184  
                                         l3306 2132                                           l3164 2B78  
                                         l3252 2A1C                                           l3244 2AD6  
                                         l3236 2AB4                                           l2604 1C82  
                                         l2540 1A74                                           l2532 1A2A  
                                         l2516 19E6                                           l2524 1A06  
                                         l2508 19A8                                           l2700 1794  
                                         l2620 14F6                                           l2612 14CA  
                                         l2452 14A8                                           l2444 148C  
                                         l2428 13F2                                           l2436 1448  
                                         l2380 1280                                           l2372 1262  
                                         l2364 122A                                           l2356 11E4  
                                         l2348 11C6                                           l2292 10C0  
                                         l2284 1090                                           l2276 1070  
                                         l2268 1046                                           l2460 2984  
                                         l3092 0E0C                                           l3084 0D4A  
                                         l3076 0D28                                           l3068 0CCC  
                                         l3156 2654                                           l3148 25CE  
                                         l3180 1D04                                           l3172 1CCC  
                                         l3260 289E                                           l3316 2196  
                                         l3308 2144                                           l3254 2A28  
                                         l3246 2AE0                                           l3238 2ACC  
                                         l3270 2B4C                                           l2550 1ABA  
                                         l2542 1A7C                                           l2534 1A44  
                                         l2526 1A16                                           l2518 19EE  
                                         l2702 17A2                                           l2630 1532  
                                         l2622 1506                                           l2614 14D6  
                                         l2454 14B6                                           l2446 149A  
                                         l2438 1458                                           l2390 12F2  
                                         l2374 1266                                           l2366 123A  
                                         l2358 1206                                           l2382 1286  
                                         l2294 10D0                                           l2286 109E  
                                         l2278 1076                                           l2462 2990  
                                         l3094 0E1C                                           l3086 0DC2  
                                         l3078 0D30                                           l2470 2B2C  
                                         l3158 2662                                           l3182 1D14  
                                         l3174 1CD0                                           l3166 1C8E  
                                         l3262 28AA                                           l3318 219C  
                                         l3256 2A34                                           l3248 2B5A  
                                         l3272 2B54                                           l2560 1B12  
                                         l2552 1AD8                                           l2544 1A8C  
                                         l2536 1A54                                           l2528 1A16  
                                         l2480 1910                                           l2712 180C  
                                         l2720 1854                                           l2704 17A6  
                                         l2640 1568                                           l2632 1538  
                                         l2624 1516                                           l2616 14E4  
                                         l2456 14B8                                           l2448 14A0  
                                         l2384 12AC                                           l2392 1302  
                                         l2376 1274                                           l2368 1248  
                                         l2296 10D2                                           l2288 10A0  
                                         l2800 2226                                           l2464 29A2  
                                         l3096 0E20                                           l3088 0DE2  
                                         l3184 1D26                                           l3192 1D3E  
                                         l3176 1CEC                                           l3168 1CB2  
                                         l3264 28C6                                           l3280 286E  
                                         l3258 2A40                                           l2570 1B50  
                                         l2562 1B18                                           l2554 1ADA  
                                         l2546 1AA0                                           l2538 1A64  
                                         l2482 1920                                           l2490 194A  
                                         l2474 18F4                                           l2730 18C8  
                                         l2722 186E                                           l2714 1818  
                                         l2706 17B4                                           l2642 1578  
                                         l2634 1546                                           l2626 151C  
                                         l2618 14E6                                           l2394 1328  
                                         l2386 12E0                                           l2378 1276  
                                         l2298 10DA                                           l2810 2274  
                                         l2802 2250                                           l2466 29A6  
                                         l3098 0E26                                           l3186 1D2E  
                                         l3194 1D70                                           l3178 1CFA  
                                         l3266 28E2                                           l3282 288C  
                                         l3274 284E                                           l3290 2A8E  
                                         l2580 1BBA                                           l2572 1B54  
                                         l2564 1B22                                           l2556 1AEA  
                                         l2548 1AAE                                           l2492 195A  
                                         l2484 1930                                           l2476 1900  
                                         l2732 18D6                                           l2724 1882  
                                         l2716 1826                                           l2708 17E2  
                                         l2660 15FA                                           l2652 15C2  
                                         l2644 157E                                           l2636 1548  
                                         l2628 152C                                           l2396 1338  
                                         l2388 12E2                                           l2820 22A0  
                                         l2804 2252                                           l2900 201C  
                                         l2468 2B10                                           l3196 1D90  
                                         l3188 1D36                                           l3276 285E  
                                         l3292 2AA6                                           l2590 1C1C  
                                         l2582 1BC6                                           l2574 1B62  
                                         l2566 1B30                                           l2558 1AFC  
                                         l2494 1960                                           l2486 1940  
                                         l2478 190E                                           l2750 276C  
                                         l2734 18D8                                           l2726 189C  
                                         l2718 1850                                           l2670 1644  
                                         l2662 1612                                           l2654 15CE  
                                         l2646 159E                                           l2638 1558  
                                         l2742 293E                                           l2830 22D0  
                                         l2806 2262                                           l2910 20D8  
                                         l2902 2050                                           l3198 1DC4  
                                         l3382 1D52                                           l3278 2866  
                                         l3286 2A7E                                           l3296 2B38  
                                         l2592 1C32                                           l2584 1BD4  
                                         l2576 1B90                                           l2568 1B42  
                                         l2496 1966                                           l2488 1942  
                                         l2760 27E4                                           l2752 277C  
                                         l2728 18B8                                           l2736 18DE  
                                         l2680 169A                                           l2672 1654  
                                         l2664 161E                                           l2656 15D8  
                                         l2648 15AE                                           l2744 294E  
                                         l2832 22E0                                           l2816 228C  
                                         l2808 2266                                           l2904 208C  
                                         l2920 2912                                           l2840 26A2  
                                         l3384 1E0C                                           l3288 2A8A  
                                         l3298 2B46                                           l2594 1C4C  
                                         l2586 1BFE                                           l2498 1974  
                                         l2754 27AA                                           l2770 236E  
                                         l2738 18E2                                           l2690 173E  
                                         l2682 16B6                                           l2674 1660  
                                         l2666 162A                                           l2658 15EE  
                                         l2834 22F0                                           l2826 22B4  
                                         l2818 2296                                           l2906 20A0  
                                         l2922 291E                                           l2914 28EE  
                                         l2850 26F8                                           l2842 26B6  
                                         l2930 0626                                           l3386 1E8E  
                                         l2596 1C68                                           l2588 1C02  
                                         l2756 27BA                                           l2748 273E  
                                         l2780 23FC                                           l2772 237E  
                                         l2764 2302                                           l2692 174C  
                                         l2684 16C2                                           l2676 1670  
                                         l2668 1638                                           l2828 22C0  
                                         l2860 2464                                           l2908 20C8  
                                         l2916 2902                                           l2924 2922  
                                         l2852 26FC                                           l2844 26C4  
                                         l2940 066E                                           l2932 0634  
                                         l2598 1C6C                                           l2758 27DE  
                                         l2782 2402                                           l2774 238C  
                                         l2766 2330                                           l2694 176A  
                                         l2686 16DE                                           l2678 168A  
                                         l2790 2A6C                                           l2870 24B6  
                                         l2862 248C                                           l2918 290E  
                                         l2854 2728                                           l2846 26D0  
                                         l2838 2694                                           l2942 067E  
                                         l2950 06A6                                           l2934 0638  
                                         l2926 0610                                           ?_pad 0011  
                                         l2776 239E                                           l2768 2340  
                                         l2696 1774                                           l2688 1708  
                                         l2864 2498                                           l2856 2406  
                                         l2848 26E4                                           l2880 29D8  
                                         l2960 06F0                                           l2952 06CC  
                                         l2944 068E                                           l2936 065C  
                                         l2928 0616                                           l2778 23AC  
                                         l2698 1782                                           l2786 2A46  
                                         l2794 21FC                                           l2874 24FA  
                                         l2858 2426                                           l2890 1F4E  
                                         l2882 27E8                                           l2970 0758  
                                         l2962 0708                                           l2954 06DE  
                                         l2946 069A                                           l2938 0666  
                                         l2788 2A5C                                           l2796 2212  
                                         l2868 24A4                                           l2892 1F62  
                                         l2884 2806                                           l2972 076A  
                                         l2964 0712                                           l2956 06E2  
                                         l2948 06A2                                           l2894 1F70  
                                         l2886 1ED8                                           l2878 29C8  
                                         l2974 076E                                           l2958 06E8  
                                         l2888 1EF8                                           l2992 07F8  
                                         l2976 0774                                           l2968 0732  
                                         l2898 1FE0                                           l2994 07FE  
                                         l2978 077C                                           l2986 0798  
                                         l2996 0832                                           l2988 07B2  
                                         l2998 0870                                           STR_1 0601  
                                         STR_2 0606                                           STR_5 060A  
                                         u2000 1338                                           u2001 1334  
                                         u2010 1364                                           u2011 1360  
                                         u2100 1446                                           u2020 1374  
                                         u2101 1442                                           u2021 1370  
                                         u2110 1458                                           u2030 1390  
                                         u2111 1454                                           u2031 138C  
                                         u2200 1974                                           u2120 1468  
                                         u2040 13A0                                           u3000 067E  
                                         u2201 1970                                           u2121 1464  
                                         u2041 139C                                           u3001 067A  
                                         u2210 1986                                           u2130 1488  
                                         u2050 13B2                                           u3010 068E  
                                         u2211 1982                                           u2131 1484  
                                         u2051 13AE                                           u3011 068A  
                                         u2300 1B30                                           u2220 1996  
                                         u2140 149A                                           u2060 13C8  
                                         u3100 096C                                           u3020 06CC  
                                         u2301 1B2C                                           u2221 1992  
                                         u2141 1496                                           u2061 13C4  
                                         u3101 0968                                           u3021 06C8  
                                         _LATA 0F89                                           u2310 1B50  
                                         u2230 19D6                                           u2150 14B6  
                                         u2070 13DE                                           u3110 09A2  
                                         u3030 06DE                                           _LATB 0F8A  
                                         u2311 1B4C                                           u2231 19D2  
                                         u2151 14B2                                           u2071 13DA  
                                         u3111 099E                                           u3031 06DA  
                                         _LATC 0F8B                                           u2320 1B62  
                                         u2240 1A16                                           u2400 14E4  
                                         u2080 13F2                                           u2160 29C6  
                                         u3200 0CC6                                           u3120 09B8  
                                         u3040 0758                                           _LATD 0F8C  
                                         u2321 1B5E                                           u2241 1A12  
                                         u2401 14E0                                           u2081 13EE  
                                         u2161 29C2                                           u3201 0CC2  
                                         u3121 09B4                                           u3041 0754  
                                         _LATE 0F8D                                           u2330 1B90  
                                         u2250 1A8C                                           u2170 190E  
                                         u2410 14F6                                           u2090 140C  
                                         u3210 0D14                                           u3130 09EE  
                                         u3050 076A                                           u2331 1B8C  
                                         u2251 1A88                                           u2171 190A  
                                         u2411 14F2                                           u2091 1408  
                                         u3211 0D10                                           u3131 09EA  
                                         u3051 0766                                           u2340 1BA6  
                                         u2260 1AAE                                           u2180 1920  
                                         u2500 17A2                                           u2420 1506  
                                         u3300 0FCA                                           u3220 0DC2  
                                         u3140 09FC                                           u3060 07E4  
                                         u2341 1BA2                                           u2261 1AAA  
                                         u2181 191C                                           u2501 179E  
                                         u2421 1502                                           u3301 0FC6  
                                         u3221 0DBE                                           u3141 09F8  
                                         u3061 07E0                                           u2350 1BBA  
                                         u2270 1AD8                                           u2190 1930  
                                         u2510 17B4                                           u2430 1546  
                                         u3230 0DFE                                           u3150 0A26  
                                         u3070 0870                                           u3310 25FA  
                                         u2351 1BB6                                           u2271 1AD4  
                                         u2191 192C                                           u2511 17B0  
                                         u2431 1542                                           u3231 0DFA  
                                         u3151 0A22                                           u3071 086C  
                                         u3311 25F6                                           u2360 1BD4  
                                         u2280 1AFC                                           u2600 27AA  
                                         u2520 17E2                                           u2440 1558  
                                         u1800 1088                                           u3240 0E0C  
                                         u3160 0B6E                                           u3080 08A2  
                                         u3320 268A                                           u3400 21C0  
                                         u2361 1BD0                                           u2281 1AF8  
                                         u2601 27A6                                           u2521 17DE  
                                         u2441 1554                                           u1801 1084  
                                         u3241 0E08                                           u3161 0B6A  
                                         u3081 089E                                           u3321 2686  
                                         u3401 21BC                                           u2370 1C1C  
                                         u2290 1B12                                           u2610 27DE  
                                         u2530 17F8                                           u2450 1568  
                                         u1810 109E                                           u1730 2516  
                                         u3250 0E60                                           u3170 0BD4  
                                         u3090 08E0                                           u3330 1CB2  
                                         u2371 1C18                                           u2291 1B0E  
                                         u2611 27DA                                           u2531 17F4  
                                         u2451 1564                                           u1811 109A  
                                         u1731 2512                                           u3251 0E5C  
                                         u3171 0BD0                                           u3091 08DC  
                                         u3331 1CAE                                           u2380 1C4C  
                                         u2620 2330                                           u2540 180C  
                                         u2460 159E                                           u1900 11D8  
                                         u1820 10B0                                           u2700 2274  
                                         u1740 2528                                           u3260 0F32  
                                         u3180 0C1C                                           u3340 1CFA  
                                         u2381 1C48                                           u2621 232C  
                                         u2541 1808                                           u2461 159A  
                                         u1901 11D4                                           u1821 10AC  
                                         u2701 2270                                           u1741 2524  
                                         u3261 0F2E                                           u3181 0C18  
                                         u3341 1CF6                                           u2390 1C7A  
                                         u2630 236E                                           u2550 1826  
                                         u2470 15AE                                           u1910 11F8  
                                         u1830 10C0                                           u2710 2288  
                                         u1750 2550                                           u3270 0F4E  
                                         u3190 0C2C                                           u3350 1D8C  
                                         u2391 1C76                                           u2631 236A  
                                         u2551 1822                                           u2471 15AA  
                                         u1911 11F4                                           u1831 10BC  
                                         u2711 2284                                           u1751 254C  
                                         u3271 0F4A                                           u3191 0C28  
                                         u3351 1D88                                           u2640 238C  
                                         u2560 186E                                           u2480 1728  
                                         u1920 1206                                           u1840 10FC  
                                         u2720 22B0                                           u2800 2464  
                                         u1760 2586                                           u3280 0FB4  
                                         u3360 28E2                                           u2641 2388  
                                         u2561 186A                                           u1921 1202  
                                         u1841 10F8                                           u2721 22AC  
                                         u2801 2460                                           u1761 2582  
                                         u3281 0FAE                                           u3361 28DE  
                                         u2650 23AC                                           u2570 189C  
                                         u2490 1782                                           u1930 1216  
                                         u1850 110A                                           u1770 1024  
                                         u2730 22D0                                           u2810 248C  
                                         u3290 0FB6                                           u3370 2AA6  
                                         u2651 23A8                                           u2571 1898  
                                         u2491 177E                                           u1931 1212  
                                         u1851 1106                                           u1771 1020  
                                         u2731 22CC                                           u2811 2488  
                                         u3371 2AA2                                           u3380 2B46  
                                         u2660 23FC                                           u2580 18D6  
                                         u1940 1248                                           u1860 1178  
                                         u1780 1036                                           u2740 22E0  
                                         u2820 24B6                                           u2900 1F70  
                                         u3381 2B42                                           u2661 23F8  
                                         u2581 18D2                                           u2485 171E  
                                         u1941 1244                                           u1861 1174  
                                         u1781 1032                                           u2741 22DC  
                                         u2821 24B2                                           u2901 1F6C  
                                         u2590 276C                                           u2670 2A5C  
                                         u1950 1256                                           u1870 1190  
                                         u1790 1046                                           u2750 26A2  
                                         u3390 2132                                           u2591 2768  
                                         u2671 2A58                                           u1951 1252  
                                         u1871 118A                                           u1791 1042  
                                         u2751 269E                                           u3391 212E  
                                         u1960 1274                                           u1880 1192  
                                         u2680 2212                                           u2840 24F0  
                                         u2920 1FDC                                           u2760 26C4  
                                         u1961 1270                                           u2681 220E  
                                         u2841 24EA                                           u2921 1FD8  
                                         u2761 26C0                                           u1970 12AC  
                                         u1890 11BA                                           u2690 2246  
                                         u2850 24F2                                           u2930 2000  
                                         u2770 271A                                           u1971 12A8  
                                         u1891 11B6                                           u2835 24C8  
                                         u2915 1F84                                           u2771 2716  
                                         u1980 12F2                                           u2940 201C  
                                         u2916 1F8E                                           u2780 2728  
                                         u2860 2A06                                           u1981 12EE  
                                         u2941 2018                                           u2917 1F9E  
                                         u2781 2724                                           u2861 2A02  
                                         u1990 1328                                           u2790 2446  
                                         u2950 2070                                           u2870 2806  
                                         u1991 1324                                           u2695 223C  
                                         u2935 1FF6                                           u2871 2802  
                                         u2960 208C                                           u2880 1F20  
                                         u2961 2088                                           u2970 20C8  
                                         u2890 1F4E                                           u2795 243C  
                                         u2971 20C4                                           u2955 2066  
                                         u2891 1F4A                                           u2980 293C  
                                         u2885 1F16                                           u2981 2938  
                                         u2990 0634                                           u2991 0630  
                                         _WPUB 0F7C                                           _dbuf 0100  
                                         _labs 27E8                                           _main 20EA  
                                         _prec 005C                                           pad@i 0018  
                                         pad@p 0015                                           fsr1h 0FE2  
                                         fsr2h 0FDA                                           indf2 0FDF  
                                         fsr1l 0FE1                                           pad@w 001A  
                                         fsr2l 0FD9                                  ___fpclassifyf 2406  
                                         prodh 0FF4                                           prodl 0FF3  
                                         start 0000                                ___fldiv@new_exp 0012  
                                 ___param_bank 0000                                          ??_pad 0017  
                                ?_EUSART_Write 0001                  __end_of_OSCILLATOR_Initialize 2B64  
                                ___fltol@sign1 0009                                          ?_labs 0001  
                              __end_of___fladd 14CA                                          ?_main 0001  
                              __end_of___fldiv 1C8E                                __end_of___flneg 2A7E  
                              __end_of___flmul 18F4                                __end_of___flsub 2984  
                              __end_of___fltol 2302                                          _ANSEL 0F7E  
                                        _RCREG 0FAE                                          _RCSTA 0FAB  
                                 vfpfcnvrt@fmt 0039                                          _SPBRG 0FAF  
                                        _TRISA 0F92                                          _TRISB 0F93  
                                        _TRISC 0F94                                          _TRISD 0F95  
                                        _TRISE 0F96                                          _TXREG 0FAD  
                                        _TXSTA 0FAC                                          _flags 005E  
                          read_prec_or_width@c 000D                            read_prec_or_width@n 000E  
                                        _fputc 2504                                          _fputs 2984  
                                        labs@a 0001                                          pad@fp 0011  
                                        _width 005A                                          _putch 2B82  
                                        main@i 00CC                                          tablat 0FF5  
                                        status 0FD8                                __end_of_sprintf 289E  
                               ?___fpclassifyf 0001                                __initialization 2AE4  
                                 __end_of_labs 284E                                   __end_of_main 21FC  
                               ??_EUSART_Write 0001                                         ??_labs 0005  
                                       ??_main 0056                                  __activetblptr 0002  
                   __end_of_read_prec_or_width 2694              _EUSART_DefaultFramingErrorHandler 0000  
                   _EUSART_OverrunErrorHandler 00D4                                         ?_fputc 0001  
                                       ?_fputs 000A                                         ?_putch 0001  
                                       _ANSELH 0F7F                                         _OSCCON 0FD3  
                                       _SPBRGH 0FB0                                   vfprintf@cfmt 0046  
                                       ___flge 2302                                         ___fleq 273E  
                                    ??___fladd 0009                                         ___wmul 2B10  
                                    ??___fldiv 0009                                      ??___flneg 0005  
                                    ??___flmul 0009                                      ??___flsub 0022  
                                    ??___fltol 0005                                         _efgtoa 0610  
                                       _floorf 1ED8                                         _memcpy 28EE  
                         read_prec_or_width@ap 0009                                         clear_0 2AEA  
                                       clear_1 2B00                                         isa$std 0001  
                                       pad@buf 0013                                         _strcpy 29C8  
                                       _strlen 2A7E                                         fputc@c 0001  
                                       fputs@c 000E                                         fputs@i 000F  
                                       fputs@s 000A                                ___fpclassifyf@e 0009  
                              ___fpclassifyf@u 000B                                ___fpclassifyf@x 0001  
                                 __mediumconst 0000                                         tblptrh 0FF7  
                                       tblptrl 0FF6                                         tblptru 0FF8  
                                       putch@c 0001                               __end_of_vfprintf 28EE  
                                    ??_sprintf 0048                                     ___flge@ff1 001A  
                                   ___flge@ff2 001E                                ??___fpclassifyf 0005  
                            _SYSTEM_Initialize 2B4C                                     ___fleq@ff1 0001  
                                   ___fleq@ff2 0005                                     __accesstop 0060  
                      __end_of__initialization 2B06                                     ___flneg@f1 0001  
                           ?_SYSTEM_Initialize 0001                                  ___rparam_used 0001  
                                   ___fltol@f1 0001                                 __pcstackCOMRAM 0001  
                          ??_SYSTEM_Initialize 0003                                  __end_of_fputc 25CE  
                                __end_of_fputs 29C8                                  __end_of_putch 2B84  
              ??_EUSART_SetOverrunErrorHandler 0003                                        ??_fputc 0005  
                    __end_of_SYSTEM_Initialize 2B5A                                        ??_fputs 000E  
                                      ??_putch 0001                                     __pbssBANK0 00D8  
                                   __pbssBANK1 0100                           __end_of_EUSART_Write 2B4C  
                                   _efgtoa$982 0066                                        ?___flge 001A  
                                      ?___fleq 0001                                        ?___wmul 0001  
                                      ?_efgtoa 002E                                        ?_floorf 001A  
                                      ?_memcpy 0001                                        _BAUDCON 0FB8  
                                      ?_strcpy 0001                                        ?_strlen 0001  
                                      _OSCTUNE 0F9B                       ??_EUSART_SetErrorHandler 0003  
                                      __Hparam 0000                                        __Lparam 0000  
                                      ___fladd 100A                                        ___fldiv 18F4  
                                      ___flneg 2A46                                        ___flmul 14CA  
                                      ___flsub 293E                                        ___fltol 21FC  
                                    ?_vfprintf 008C                                   __psmallconst 0600  
                                      __pcinit 2AE4                                        __ramtop 0600  
                                      __ptext0 20EA                                        __ptext1 2A7E  
                                      __ptext2 284E                                        __ptext3 289E  
                                      __ptext4 1C8E                                        __ptext5 25CE  
                                      __ptext6 2B10                                        __ptext7 0610  
                                      __ptext8 29C8                                        __ptext9 2694  
                        _OSCILLATOR_Initialize 2B5A                          read_prec_or_width@fmt 0007  
                     ??_PIN_MANAGER_Initialize 0001                                        efgtoa@c 0034  
                                      efgtoa@d 006B                                        efgtoa@e 006F  
                                      efgtoa@f 0030                                        efgtoa@g 0084  
                                      efgtoa@h 0079                                        efgtoa@i 0077  
                                      efgtoa@l 007D                                        efgtoa@m 006D  
                                      efgtoa@n 0082                                        efgtoa@p 0062  
                                      efgtoa@t 0064                                        efgtoa@u 0088  
                                      efgtoa@w 0071                                        _sprintf 284E  
                         end_of_initialization 2B06                                        floorf@e 0028  
                                      floorf@m 0024                                        floorf@u 002A  
                                      floorf@x 001A          __end_of_EUSART_SetOverrunErrorHandler 2B6E  
                _EUSART_SetOverrunErrorHandler 2B64                                        memcpy@d 0007  
                                      memcpy@n 0005                                        memcpy@s 0009  
                                      fputc@fp 0003                                  __Lmediumconst 0000  
                                      fputs@fp 000C                             _read_prec_or_width 25CE  
                            _EUSART_Initialize 2A08                             ?_EUSART_Initialize 0001  
                            __end_of_vfpfcnvrt 1ED8                                     efgtoa@mode 0069  
                                   efgtoa@sign 0081                                      _RCSTAbits 0FAB  
                                      postdec2 0FDD                            ?_read_prec_or_width 0007  
                                      postinc0 0FEE                                        postinc1 0FE6  
                                      postinc2 0FDE                               vfpfcnvrt@convarg 003F  
                                   ??_vfprintf 0046                                        strcpy@d 0007  
                                      strlen@a 0003                                        strcpy@s 0005  
                                      strlen@s 0001                            ??_EUSART_Initialize 0003  
                                  ___fladd@grs 0010                           ??_read_prec_or_width 000B  
                                  ___fldiv@grs 0014                                    ___fldiv@rem 000D  
                                  ___flmul@grs 000E                      __end_of_EUSART_Initialize 2A46  
                                    _TXSTAbits 0FAC                                 __end_of___flge 2406  
                               __end_of___fleq 27E8                     _EUSART_DefaultErrorHandler 0000  
                                  vfpfcnvrt@ap 003B                                    vfpfcnvrt@cp 0044  
                                  vfpfcnvrt@fp 0037                                 __end_of___wmul 2B36  
                               __end_of_efgtoa 100A                                   _EUSART_Write 2B36  
                               __end_of_floorf 20EA                                 __end_of_memcpy 293E  
                       ?_OSCILLATOR_Initialize 0001                                     floorf@F526 00D8  
                               __end_of_strcpy 2A08                                 __end_of_strlen 2AB4  
                          start_initialization 2AE4                                    __end_of_pad 273E  
                        __end_of___fpclassifyf 2504                 ?_EUSART_SetOverrunErrorHandler 0001  
                                  vfprintf@fmt 008E                     _EUSART_FramingErrorHandler 00D6  
                                     ??___flge 0022                                       ??___fleq 0009  
                                     ??___wmul 0005                         _EUSART_SetErrorHandler 2B78  
                                     ??_efgtoa 0035                                       ??_floorf 001E  
                                     ??_memcpy 0007                                       ??_strcpy 0005  
                                     ??_strlen 0003                                      ___fladd@a 0005  
                                    ___fladd@b 0001                                      ___fldiv@a 0005  
                                    ___fldiv@b 0001                                      ___flmul@a 0005  
                                    ___flmul@b 0001                                    __pbssCOMRAM 0056  
                                    ___flsub@a 001E                                      ___flsub@b 001A  
                                __pcstackBANK0 0060                                      __pnvBANK0 00D2  
                       _PIN_MANAGER_Initialize 2AB4                                       ?___fladd 0001  
                                     ?___fldiv 0001                                       ?___flneg 0001  
                                     ?___flmul 0001                                       ?___flsub 001A  
                                     ?___fltol 0001                                    __smallconst 0600  
                                     ?_sprintf 0092                                 ___wmul@product 0005  
       EUSART_SetErrorHandler@interruptHandler 0001                              _eusartRxLastError 005F  
                                     _PIR1bits 0F9E                ??_EUSART_SetFramingErrorHandler 0003  
            _EUSART_DefaultOverrunErrorHandler 0000                                      _vfpfcnvrt 1C8E  
                            ___wmul@multiplier 0001                                      main@value 00CE  
                                   vfpfcnvrt@c 0043                                    _INTCON2bits 0FF1  
                                     __Hrparam 0000                                      memcpy@tmp 000B  
                                   vfprintf@ap 0090                                       __Lrparam 0000  
                                   vfprintf@fp 008C                        ??_OSCILLATOR_Initialize 0001  
                          _EUSART_ErrorHandler 00D2                                     ?_vfpfcnvrt 0037  
                           ___fpclassifyf@F465 0056                                     sprintf@fmt 0094  
                                     __ptext10 2984                                       __ptext11 2504  
                                     __ptext20 2A46                                       __ptext12 2B82  
                                     __ptext21 14CA                                       __ptext13 28EE  
                                     __ptext30 2B6E                                       __ptext22 2302  
                                     __ptext14 27E8                                       __ptext31 2B78  
                                     __ptext23 273E                                       __ptext15 1ED8  
                                     __ptext32 2B36                                       __ptext24 18F4  
                                     __ptext16 2406                                       __ptext25 2B4C  
                                     __ptext17 21FC                                       __ptext26 2AB4  
                                     __ptext18 293E                                       __ptext27 2B5A  
                                     __ptext19 100A                                       __ptext28 2A08  
                                     __ptext29 2B64                                     strcpy@dest 0001  
                      ?_EUSART_SetErrorHandler 0001                                       efgtoa@fp 002E  
                                     efgtoa@ne 0060                                       efgtoa@pp 0068  
                                     efgtoa@ou 0073  EUSART_SetOverrunErrorHandler@interruptHandler 0001  
                                     isa$xinst 0000                                       _vfprintf 289E  
                                     main@data 009A          __end_of_EUSART_SetFramingErrorHandler 2B78  
                _EUSART_SetFramingErrorHandler 2B6E                                     _INTCONbits 0FF2  
                                     memcpy@d1 0001                                       memcpy@s1 0003  
                                    sprintf@ap 0048                        ?_PIN_MANAGER_Initialize 0001  
               __end_of_EUSART_SetErrorHandler 2B82                                      strcpy@src 0003  
                                  efgtoa@nmode 006A  EUSART_SetFramingErrorHandler@interruptHandler 0001  
                                  ??_vfpfcnvrt 003D                                       sprintf@f 004A  
                                     sprintf@s 0092                                  ___fladd@signs 000D  
                           EUSART_Write@txData 0001                 __end_of_PIN_MANAGER_Initialize 2AE4  
                                 ___fladd@aexp 000E                                   ___fladd@bexp 000F  
